arm-none-eabi-objdump -d bin/sample.elf

bin/sample.elf:     file format elf32-littlearm


Disassembly of section .text:

08000000 <__text_start>:
 8000000:	20020000 	.word	0x20020000
 8000004:	080006a1 	.word	0x080006a1
 8000008:	080001ac 	.word	0x080001ac
 800000c:	080001ac 	.word	0x080001ac
 8000010:	080001ac 	.word	0x080001ac
 8000014:	080001ac 	.word	0x080001ac
 8000018:	080001ac 	.word	0x080001ac
	...
 800002c:	080001ac 	.word	0x080001ac
 8000030:	080001ac 	.word	0x080001ac
 8000034:	00000000 	.word	0x00000000
 8000038:	080001ac 	.word	0x080001ac
 800003c:	080001ac 	.word	0x080001ac
 8000040:	080001ac 	.word	0x080001ac
 8000044:	080001ac 	.word	0x080001ac
 8000048:	080001ac 	.word	0x080001ac
 800004c:	080001ac 	.word	0x080001ac
 8000050:	080001ac 	.word	0x080001ac
 8000054:	080001ac 	.word	0x080001ac
 8000058:	08001f85 	.word	0x08001f85
 800005c:	080001ac 	.word	0x080001ac
 8000060:	080001ac 	.word	0x080001ac
 8000064:	080001ac 	.word	0x080001ac
 8000068:	080001ac 	.word	0x080001ac
 800006c:	080001ac 	.word	0x080001ac
 8000070:	080001ac 	.word	0x080001ac
 8000074:	080001ac 	.word	0x080001ac
 8000078:	080001ac 	.word	0x080001ac
 800007c:	080001ac 	.word	0x080001ac
 8000080:	080001ac 	.word	0x080001ac
 8000084:	080001ac 	.word	0x080001ac
 8000088:	080001ac 	.word	0x080001ac
 800008c:	080001ac 	.word	0x080001ac
 8000090:	080001ac 	.word	0x080001ac
 8000094:	080001ac 	.word	0x080001ac
 8000098:	080001ac 	.word	0x080001ac
 800009c:	080001ac 	.word	0x080001ac
 80000a0:	080001ac 	.word	0x080001ac
 80000a4:	080001ac 	.word	0x080001ac
 80000a8:	080001ac 	.word	0x080001ac
 80000ac:	080001ac 	.word	0x080001ac
 80000b0:	080001ac 	.word	0x080001ac
 80000b4:	080001ac 	.word	0x080001ac
 80000b8:	080001ac 	.word	0x080001ac
 80000bc:	080001ac 	.word	0x080001ac
 80000c0:	080001ac 	.word	0x080001ac
 80000c4:	080001ac 	.word	0x080001ac
 80000c8:	080001ac 	.word	0x080001ac
 80000cc:	080001ac 	.word	0x080001ac
 80000d0:	080001ac 	.word	0x080001ac
 80000d4:	080001ac 	.word	0x080001ac
 80000d8:	080001ac 	.word	0x080001ac
 80000dc:	080001ac 	.word	0x080001ac
 80000e0:	080001ac 	.word	0x080001ac
 80000e4:	080001ac 	.word	0x080001ac
 80000e8:	080001ac 	.word	0x080001ac
 80000ec:	080001ac 	.word	0x080001ac
 80000f0:	080001ac 	.word	0x080001ac
 80000f4:	080001ac 	.word	0x080001ac
 80000f8:	080001ac 	.word	0x080001ac
 80000fc:	080001ac 	.word	0x080001ac
 8000100:	080001ac 	.word	0x080001ac
 8000104:	080001ac 	.word	0x080001ac
 8000108:	080001ac 	.word	0x080001ac
 800010c:	080001ac 	.word	0x080001ac
 8000110:	080001ac 	.word	0x080001ac
 8000114:	080001ac 	.word	0x080001ac
 8000118:	080001ac 	.word	0x080001ac
 800011c:	080001ac 	.word	0x080001ac
 8000120:	080001ac 	.word	0x080001ac
 8000124:	080001ac 	.word	0x080001ac
 8000128:	080001ac 	.word	0x080001ac
 800012c:	080001ac 	.word	0x080001ac
 8000130:	080001ac 	.word	0x080001ac
 8000134:	080001ac 	.word	0x080001ac
 8000138:	080001ac 	.word	0x080001ac
 800013c:	080001ac 	.word	0x080001ac
 8000140:	080001ac 	.word	0x080001ac
 8000144:	080001ac 	.word	0x080001ac
 8000148:	080001ac 	.word	0x080001ac
 800014c:	080001ac 	.word	0x080001ac
 8000150:	080001ac 	.word	0x080001ac
 8000154:	080001ac 	.word	0x080001ac
 8000158:	080001ac 	.word	0x080001ac
 800015c:	080001ac 	.word	0x080001ac
 8000160:	080001ac 	.word	0x080001ac
 8000164:	080001ac 	.word	0x080001ac
 8000168:	080001ac 	.word	0x080001ac
 800016c:	080001ac 	.word	0x080001ac
 8000170:	080001ac 	.word	0x080001ac
 8000174:	080001ac 	.word	0x080001ac
 8000178:	080001ac 	.word	0x080001ac
 800017c:	00000000 	.word	0x00000000
 8000180:	080001ac 	.word	0x080001ac
 8000184:	080001ac 	.word	0x080001ac
 8000188:	080001ac 	.word	0x080001ac
 800018c:	080001ac 	.word	0x080001ac
 8000190:	080001ac 	.word	0x080001ac
 8000194:	080001ac 	.word	0x080001ac
 8000198:	080001ac 	.word	0x080001ac
 800019c:	080001ac 	.word	0x080001ac
 80001a0:	080001ac 	.word	0x080001ac
 80001a4:	080001ac 	.word	0x080001ac
 80001a8:	080001ac 	.word	0x080001ac

080001ac <ADC_IRQHandler>:
 80001ac:	4770      	bx	lr
	...

080001b0 <debug_print>:
 80001b0:	b500      	push	{lr}
 80001b2:	b0a1      	sub	sp, #132	; 0x84
 80001b4:	680a      	ldr	r2, [r1, #0]
 80001b6:	4905      	ldr	r1, [pc, #20]	; (80001cc <debug_print+0x1c>)
 80001b8:	4668      	mov	r0, sp
 80001ba:	f003 fa4f 	bl	800365c <sprintf>
 80001be:	4668      	mov	r0, sp
 80001c0:	f000 fa5c 	bl	800067c <shell_print>
 80001c4:	2000      	movs	r0, #0
 80001c6:	b021      	add	sp, #132	; 0x84
 80001c8:	f85d fb04 	ldr.w	pc, [sp], #4
 80001cc:	08003698 	.word	0x08003698

080001d0 <compile.isra.0>:
 80001d0:	b510      	push	{r4, lr}
 80001d2:	4604      	mov	r4, r0
 80001d4:	f5ad 6dc7 	sub.w	sp, sp, #1592	; 0x638
 80001d8:	481c      	ldr	r0, [pc, #112]	; (800024c <compile.isra.0+0x7c>)
 80001da:	f000 fa4f 	bl	800067c <shell_print>
 80001de:	a821      	add	r0, sp, #132	; 0x84
 80001e0:	4621      	mov	r1, r4
 80001e2:	f44f 6380 	mov.w	r3, #1024	; 0x400
 80001e6:	aa8e      	add	r2, sp, #568	; 0x238
 80001e8:	f001 fac4 	bl	8001774 <nanoc_parser_init>
 80001ec:	a821      	add	r0, sp, #132	; 0x84
 80001ee:	f001 fb19 	bl	8001824 <nanoc_statement>
 80001f2:	b9f0      	cbnz	r0, 8000232 <compile.isra.0+0x62>
 80001f4:	4601      	mov	r1, r0
 80001f6:	a882      	add	r0, sp, #520	; 0x208
 80001f8:	f001 f970 	bl	80014dc <nanoc_output_emit>
 80001fc:	4814      	ldr	r0, [pc, #80]	; (8000250 <compile.isra.0+0x80>)
 80001fe:	f000 fa3d 	bl	800067c <shell_print>
 8000202:	9882      	ldr	r0, [sp, #520]	; 0x208
 8000204:	4913      	ldr	r1, [pc, #76]	; (8000254 <compile.isra.0+0x84>)
 8000206:	f000 fcc1 	bl	8000b8c <nanoc_interpreter_run>
 800020a:	b928      	cbnz	r0, 8000218 <compile.isra.0+0x48>
 800020c:	4812      	ldr	r0, [pc, #72]	; (8000258 <compile.isra.0+0x88>)
 800020e:	f000 fa35 	bl	800067c <shell_print>
 8000212:	f50d 6dc7 	add.w	sp, sp, #1592	; 0x638
 8000216:	bd10      	pop	{r4, pc}
 8000218:	f000 ff68 	bl	80010ec <nanoc_interpreter_status_message>
 800021c:	490f      	ldr	r1, [pc, #60]	; (800025c <compile.isra.0+0x8c>)
 800021e:	4602      	mov	r2, r0
 8000220:	a801      	add	r0, sp, #4
 8000222:	f003 fa1b 	bl	800365c <sprintf>
 8000226:	a801      	add	r0, sp, #4
 8000228:	f000 fa28 	bl	800067c <shell_print>
 800022c:	f50d 6dc7 	add.w	sp, sp, #1592	; 0x638
 8000230:	bd10      	pop	{r4, pc}
 8000232:	f000 ffa7 	bl	8001184 <nanoc_status_message>
 8000236:	490a      	ldr	r1, [pc, #40]	; (8000260 <compile.isra.0+0x90>)
 8000238:	4602      	mov	r2, r0
 800023a:	a801      	add	r0, sp, #4
 800023c:	f003 fa0e 	bl	800365c <sprintf>
 8000240:	a801      	add	r0, sp, #4
 8000242:	f000 fa1b 	bl	800067c <shell_print>
 8000246:	f50d 6dc7 	add.w	sp, sp, #1592	; 0x638
 800024a:	bd10      	pop	{r4, pc}
 800024c:	0800369c 	.word	0x0800369c
 8000250:	080036c0 	.word	0x080036c0
 8000254:	20000000 	.word	0x20000000
 8000258:	080036e8 	.word	0x080036e8
 800025c:	080036d4 	.word	0x080036d4
 8000260:	080036ac 	.word	0x080036ac

08000264 <command_run>:
 8000264:	b510      	push	{r4, lr}
 8000266:	4604      	mov	r4, r0
 8000268:	4806      	ldr	r0, [pc, #24]	; (8000284 <command_run+0x20>)
 800026a:	f000 fa07 	bl	800067c <shell_print>
 800026e:	4620      	mov	r0, r4
 8000270:	f000 fa04 	bl	800067c <shell_print>
 8000274:	4804      	ldr	r0, [pc, #16]	; (8000288 <command_run+0x24>)
 8000276:	f000 fa01 	bl	800067c <shell_print>
 800027a:	4620      	mov	r0, r4
 800027c:	e8bd 4010 	ldmia.w	sp!, {r4, lr}
 8000280:	e7a6      	b.n	80001d0 <compile.isra.0>
 8000282:	bf00      	nop
 8000284:	080036f0 	.word	0x080036f0
 8000288:	08003704 	.word	0x08003704

0800028c <key_left>:
 800028c:	e9d0 3201 	ldrd	r3, r2, [r0, #4]
 8000290:	4293      	cmp	r3, r2
 8000292:	d005      	beq.n	80002a0 <key_left+0x14>
 8000294:	4293      	cmp	r3, r2
 8000296:	bfa8      	it	ge
 8000298:	4613      	movge	r3, r2
 800029a:	e9c0 3301 	strd	r3, r3, [r0, #4]
 800029e:	4770      	bx	lr
 80002a0:	2b00      	cmp	r3, #0
 80002a2:	ddfc      	ble.n	800029e <key_left+0x12>
 80002a4:	3b01      	subs	r3, #1
 80002a6:	e9c0 3301 	strd	r3, r3, [r0, #4]
 80002aa:	4770      	bx	lr

080002ac <key_shift_left>:
 80002ac:	6843      	ldr	r3, [r0, #4]
 80002ae:	2b00      	cmp	r3, #0
 80002b0:	bfc4      	itt	gt
 80002b2:	f103 33ff 	addgt.w	r3, r3, #4294967295	; 0xffffffff
 80002b6:	6043      	strgt	r3, [r0, #4]
 80002b8:	4770      	bx	lr
 80002ba:	bf00      	nop

080002bc <key_right>:
 80002bc:	e9d0 3201 	ldrd	r3, r2, [r0, #4]
 80002c0:	4293      	cmp	r3, r2
 80002c2:	d005      	beq.n	80002d0 <key_right+0x14>
 80002c4:	4293      	cmp	r3, r2
 80002c6:	bfb8      	it	lt
 80002c8:	4613      	movlt	r3, r2
 80002ca:	e9c0 3301 	strd	r3, r3, [r0, #4]
 80002ce:	4770      	bx	lr
 80002d0:	6802      	ldr	r2, [r0, #0]
 80002d2:	4293      	cmp	r3, r2
 80002d4:	dafb      	bge.n	80002ce <key_right+0x12>
 80002d6:	3301      	adds	r3, #1
 80002d8:	e9c0 3301 	strd	r3, r3, [r0, #4]
 80002dc:	4770      	bx	lr
 80002de:	bf00      	nop

080002e0 <key_shift_right>:
 80002e0:	e9d0 2300 	ldrd	r2, r3, [r0]
 80002e4:	4293      	cmp	r3, r2
 80002e6:	bfbc      	itt	lt
 80002e8:	3301      	addlt	r3, #1
 80002ea:	6043      	strlt	r3, [r0, #4]
 80002ec:	4770      	bx	lr
 80002ee:	bf00      	nop

080002f0 <key_ctrl_a>:
 80002f0:	6803      	ldr	r3, [r0, #0]
 80002f2:	2200      	movs	r2, #0
 80002f4:	e9c0 3201 	strd	r3, r2, [r0, #4]
 80002f8:	4770      	bx	lr
 80002fa:	bf00      	nop

080002fc <key_home>:
 80002fc:	2300      	movs	r3, #0
 80002fe:	e9c0 3301 	strd	r3, r3, [r0, #4]
 8000302:	4770      	bx	lr

08000304 <key_shift_home>:
 8000304:	2300      	movs	r3, #0
 8000306:	6043      	str	r3, [r0, #4]
 8000308:	4770      	bx	lr
 800030a:	bf00      	nop

0800030c <key_end>:
 800030c:	6803      	ldr	r3, [r0, #0]
 800030e:	e9c0 3301 	strd	r3, r3, [r0, #4]
 8000312:	4770      	bx	lr

08000314 <key_shift_end>:
 8000314:	6803      	ldr	r3, [r0, #0]
 8000316:	6043      	str	r3, [r0, #4]
 8000318:	4770      	bx	lr
 800031a:	bf00      	nop

0800031c <key_up>:
 800031c:	4a04      	ldr	r2, [pc, #16]	; (8000330 <key_up+0x14>)
 800031e:	6813      	ldr	r3, [r2, #0]
 8000320:	b113      	cbz	r3, 8000328 <key_up+0xc>
 8000322:	3b01      	subs	r3, #1
 8000324:	6013      	str	r3, [r2, #0]
 8000326:	4770      	bx	lr
 8000328:	2303      	movs	r3, #3
 800032a:	6013      	str	r3, [r2, #0]
 800032c:	4770      	bx	lr
 800032e:	bf00      	nop
 8000330:	2000000c 	.word	0x2000000c

08000334 <key_down>:
 8000334:	4a03      	ldr	r2, [pc, #12]	; (8000344 <key_down+0x10>)
 8000336:	6813      	ldr	r3, [r2, #0]
 8000338:	3301      	adds	r3, #1
 800033a:	2b03      	cmp	r3, #3
 800033c:	bfc8      	it	gt
 800033e:	2300      	movgt	r3, #0
 8000340:	6013      	str	r3, [r2, #0]
 8000342:	4770      	bx	lr
 8000344:	2000000c 	.word	0x2000000c

08000348 <command_render>:
 8000348:	e92d 43f8 	stmdb	sp!, {r3, r4, r5, r6, r7, r8, r9, lr}
 800034c:	4c24      	ldr	r4, [pc, #144]	; (80003e0 <command_render+0x98>)
 800034e:	4a25      	ldr	r2, [pc, #148]	; (80003e4 <command_render+0x9c>)
 8000350:	f8d4 9000 	ldr.w	r9, [r4]
 8000354:	ea4f 05c9 	mov.w	r5, r9, lsl #3
 8000358:	eb05 0709 	add.w	r7, r5, r9
 800035c:	00ff      	lsls	r7, r7, #3
 800035e:	f107 0310 	add.w	r3, r7, #16
 8000362:	4423      	add	r3, r4
 8000364:	e9d3 8601 	ldrd	r8, r6, [r3, #4]
 8000368:	4546      	cmp	r6, r8
 800036a:	f812 2009 	ldrb.w	r2, [r2, r9]
 800036e:	db02      	blt.n	8000376 <command_render+0x2e>
 8000370:	4633      	mov	r3, r6
 8000372:	4646      	mov	r6, r8
 8000374:	4698      	mov	r8, r3
 8000376:	2100      	movs	r1, #0
 8000378:	0212      	lsls	r2, r2, #8
 800037a:	4608      	mov	r0, r1
 800037c:	f042 023e 	orr.w	r2, r2, #62	; 0x3e
 8000380:	f000 f9ba 	bl	80006f8 <terminal_set>
 8000384:	f44f 62e4 	mov.w	r2, #1824	; 0x720
 8000388:	2100      	movs	r1, #0
 800038a:	2001      	movs	r0, #1
 800038c:	f000 f9b4 	bl	80006f8 <terminal_set>
 8000390:	371c      	adds	r7, #28
 8000392:	eb05 0309 	add.w	r3, r5, r9
 8000396:	4427      	add	r7, r4
 8000398:	eb04 05c3 	add.w	r5, r4, r3, lsl #3
 800039c:	2400      	movs	r4, #0
 800039e:	e016      	b.n	80003ce <command_render+0x86>
 80003a0:	45a0      	cmp	r8, r4
 80003a2:	bfcc      	ite	gt
 80003a4:	2330      	movgt	r3, #48	; 0x30
 80003a6:	2307      	movle	r3, #7
 80003a8:	696a      	ldr	r2, [r5, #20]
 80003aa:	6929      	ldr	r1, [r5, #16]
 80003ac:	42a2      	cmp	r2, r4
 80003ae:	bf14      	ite	ne
 80003b0:	021b      	lslne	r3, r3, #8
 80003b2:	f44f 43e0 	moveq.w	r3, #28672	; 0x7000
 80003b6:	42a1      	cmp	r1, r4
 80003b8:	f04f 0220 	mov.w	r2, #32
 80003bc:	bfc8      	it	gt
 80003be:	5d3a      	ldrbgt	r2, [r7, r4]
 80003c0:	2100      	movs	r1, #0
 80003c2:	431a      	orrs	r2, r3
 80003c4:	3401      	adds	r4, #1
 80003c6:	f000 f997 	bl	80006f8 <terminal_set>
 80003ca:	2c3a      	cmp	r4, #58	; 0x3a
 80003cc:	d005      	beq.n	80003da <command_render+0x92>
 80003ce:	42a6      	cmp	r6, r4
 80003d0:	f104 0002 	add.w	r0, r4, #2
 80003d4:	dde4      	ble.n	80003a0 <command_render+0x58>
 80003d6:	2307      	movs	r3, #7
 80003d8:	e7e6      	b.n	80003a8 <command_render+0x60>
 80003da:	e8bd 83f8 	ldmia.w	sp!, {r3, r4, r5, r6, r7, r8, r9, pc}
 80003de:	bf00      	nop
 80003e0:	2000000c 	.word	0x2000000c
 80003e4:	08003708 	.word	0x08003708

080003e8 <selection_delete>:
 80003e8:	b570      	push	{r4, r5, r6, lr}
 80003ea:	e9d0 5601 	ldrd	r5, r6, [r0, #4]
 80003ee:	42ae      	cmp	r6, r5
 80003f0:	4604      	mov	r4, r0
 80003f2:	db02      	blt.n	80003fa <selection_delete+0x12>
 80003f4:	4633      	mov	r3, r6
 80003f6:	462e      	mov	r6, r5
 80003f8:	461d      	mov	r5, r3
 80003fa:	4620      	mov	r0, r4
 80003fc:	f850 2b0c 	ldr.w	r2, [r0], #12
 8000400:	1941      	adds	r1, r0, r5
 8000402:	1b52      	subs	r2, r2, r5
 8000404:	4430      	add	r0, r6
 8000406:	f002 fd3f 	bl	8002e88 <memmove>
 800040a:	6823      	ldr	r3, [r4, #0]
 800040c:	6066      	str	r6, [r4, #4]
 800040e:	1bad      	subs	r5, r5, r6
 8000410:	1b5d      	subs	r5, r3, r5
 8000412:	60a6      	str	r6, [r4, #8]
 8000414:	6025      	str	r5, [r4, #0]
 8000416:	bd70      	pop	{r4, r5, r6, pc}

08000418 <key_delete>:
 8000418:	e9d0 2101 	ldrd	r2, r1, [r0, #4]
 800041c:	4291      	cmp	r1, r2
 800041e:	4603      	mov	r3, r0
 8000420:	d103      	bne.n	800042a <key_delete+0x12>
 8000422:	6802      	ldr	r2, [r0, #0]
 8000424:	4291      	cmp	r1, r2
 8000426:	db01      	blt.n	800042c <key_delete+0x14>
 8000428:	4770      	bx	lr
 800042a:	e7dd      	b.n	80003e8 <selection_delete>
 800042c:	300c      	adds	r0, #12
 800042e:	3a01      	subs	r2, #1
 8000430:	4408      	add	r0, r1
 8000432:	601a      	str	r2, [r3, #0]
 8000434:	1a52      	subs	r2, r2, r1
 8000436:	1c41      	adds	r1, r0, #1
 8000438:	f002 bd26 	b.w	8002e88 <memmove>

0800043c <key_backspace>:
 800043c:	e9d0 1201 	ldrd	r1, r2, [r0, #4]
 8000440:	428a      	cmp	r2, r1
 8000442:	d114      	bne.n	800046e <key_backspace+0x32>
 8000444:	2a00      	cmp	r2, #0
 8000446:	dc00      	bgt.n	800044a <key_backspace+0xe>
 8000448:	4770      	bx	lr
 800044a:	6803      	ldr	r3, [r0, #0]
 800044c:	f100 010c 	add.w	r1, r0, #12
 8000450:	4411      	add	r1, r2
 8000452:	b510      	push	{r4, lr}
 8000454:	1a9a      	subs	r2, r3, r2
 8000456:	4604      	mov	r4, r0
 8000458:	1e48      	subs	r0, r1, #1
 800045a:	f002 fd15 	bl	8002e88 <memmove>
 800045e:	e9d4 2300 	ldrd	r2, r3, [r4]
 8000462:	3b01      	subs	r3, #1
 8000464:	3a01      	subs	r2, #1
 8000466:	e9c4 3301 	strd	r3, r3, [r4, #4]
 800046a:	6022      	str	r2, [r4, #0]
 800046c:	bd10      	pop	{r4, pc}
 800046e:	e7bb      	b.n	80003e8 <selection_delete>

08000470 <selection_replace>:
 8000470:	e92d 4ff8 	stmdb	sp!, {r3, r4, r5, r6, r7, r8, r9, sl, fp, lr}
 8000474:	e9d0 3501 	ldrd	r3, r5, [r0, #4]
 8000478:	429d      	cmp	r5, r3
 800047a:	db02      	blt.n	8000482 <selection_replace+0x12>
 800047c:	462c      	mov	r4, r5
 800047e:	461d      	mov	r5, r3
 8000480:	4623      	mov	r3, r4
 8000482:	6807      	ldr	r7, [r0, #0]
 8000484:	1b5e      	subs	r6, r3, r5
 8000486:	18bc      	adds	r4, r7, r2
 8000488:	1ba6      	subs	r6, r4, r6
 800048a:	2e39      	cmp	r6, #57	; 0x39
 800048c:	dc16      	bgt.n	80004bc <selection_replace+0x4c>
 800048e:	f100 0b0c 	add.w	fp, r0, #12
 8000492:	eb05 0a02 	add.w	sl, r5, r2
 8000496:	4604      	mov	r4, r0
 8000498:	4690      	mov	r8, r2
 800049a:	4689      	mov	r9, r1
 800049c:	1afa      	subs	r2, r7, r3
 800049e:	eb0b 0103 	add.w	r1, fp, r3
 80004a2:	eb0b 000a 	add.w	r0, fp, sl
 80004a6:	f002 fcef 	bl	8002e88 <memmove>
 80004aa:	4642      	mov	r2, r8
 80004ac:	4649      	mov	r1, r9
 80004ae:	eb0b 0005 	add.w	r0, fp, r5
 80004b2:	f002 fcd7 	bl	8002e64 <memcpy>
 80004b6:	e9c4 aa01 	strd	sl, sl, [r4, #4]
 80004ba:	6026      	str	r6, [r4, #0]
 80004bc:	e8bd 8ff8 	ldmia.w	sp!, {r3, r4, r5, r6, r7, r8, r9, sl, fp, pc}

080004c0 <key_ctrl_v>:
 80004c0:	b510      	push	{r4, lr}
 80004c2:	b082      	sub	sp, #8
 80004c4:	4604      	mov	r4, r0
 80004c6:	a801      	add	r0, sp, #4
 80004c8:	f000 f8fc 	bl	80006c4 <clipboard_get>
 80004cc:	9a01      	ldr	r2, [sp, #4]
 80004ce:	4601      	mov	r1, r0
 80004d0:	4620      	mov	r0, r4
 80004d2:	f7ff ffcd 	bl	8000470 <selection_replace>
 80004d6:	b002      	add	sp, #8
 80004d8:	bd10      	pop	{r4, pc}
 80004da:	bf00      	nop

080004dc <key_ctrl_x>:
 80004dc:	e9d0 1301 	ldrd	r1, r3, [r0, #4]
 80004e0:	428b      	cmp	r3, r1
 80004e2:	b510      	push	{r4, lr}
 80004e4:	4604      	mov	r4, r0
 80004e6:	db02      	blt.n	80004ee <key_ctrl_x+0x12>
 80004e8:	461a      	mov	r2, r3
 80004ea:	460b      	mov	r3, r1
 80004ec:	4611      	mov	r1, r2
 80004ee:	f104 000c 	add.w	r0, r4, #12
 80004f2:	1ac9      	subs	r1, r1, r3
 80004f4:	4418      	add	r0, r3
 80004f6:	f000 f8ed 	bl	80006d4 <clipboard_save>
 80004fa:	4620      	mov	r0, r4
 80004fc:	e8bd 4010 	ldmia.w	sp!, {r4, lr}
 8000500:	e772      	b.n	80003e8 <selection_delete>
 8000502:	bf00      	nop

08000504 <key_ctrl_c>:
 8000504:	e9d0 1301 	ldrd	r1, r3, [r0, #4]
 8000508:	428b      	cmp	r3, r1
 800050a:	db02      	blt.n	8000512 <key_ctrl_c+0xe>
 800050c:	461a      	mov	r2, r3
 800050e:	460b      	mov	r3, r1
 8000510:	4611      	mov	r1, r2
 8000512:	300c      	adds	r0, #12
 8000514:	4418      	add	r0, r3
 8000516:	1ac9      	subs	r1, r1, r3
 8000518:	f000 b8dc 	b.w	80006d4 <clipboard_save>

0800051c <shell_init>:
 800051c:	4b03      	ldr	r3, [pc, #12]	; (800052c <shell_init+0x10>)
 800051e:	2000      	movs	r0, #0
 8000520:	2101      	movs	r1, #1
 8000522:	2207      	movs	r2, #7
 8000524:	e9c3 0101 	strd	r0, r1, [r3, #4]
 8000528:	60da      	str	r2, [r3, #12]
 800052a:	e70d      	b.n	8000348 <command_render>
 800052c:	2000000c 	.word	0x2000000c

08000530 <shell_update>:
 8000530:	e92d 4ff0 	stmdb	sp!, {r4, r5, r6, r7, r8, r9, sl, fp, lr}
 8000534:	b085      	sub	sp, #20
 8000536:	a802      	add	r0, sp, #8
 8000538:	f001 fdd8 	bl	80020ec <ps2_read>
 800053c:	b110      	cbz	r0, 8000544 <shell_update+0x14>
 800053e:	f89d 300e 	ldrb.w	r3, [sp, #14]
 8000542:	b913      	cbnz	r3, 800054a <shell_update+0x1a>
 8000544:	b005      	add	sp, #20
 8000546:	e8bd 8ff0 	ldmia.w	sp!, {r4, r5, r6, r7, r8, r9, sl, fp, pc}
 800054a:	f8df 80e8 	ldr.w	r8, [pc, #232]	; 8000634 <shell_update+0x104>
 800054e:	4c38      	ldr	r4, [pc, #224]	; (8000630 <shell_update+0x100>)
 8000550:	f8d8 7000 	ldr.w	r7, [r8]
 8000554:	f8bd 200c 	ldrh.w	r2, [sp, #12]
 8000558:	f8dd a008 	ldr.w	sl, [sp, #8]
 800055c:	ea4f 09c7 	mov.w	r9, r7, lsl #3
 8000560:	eb09 0607 	add.w	r6, r9, r7
 8000564:	00f6      	lsls	r6, r6, #3
 8000566:	f106 0b10 	add.w	fp, r6, #16
 800056a:	44c3      	add	fp, r8
 800056c:	f104 0580 	add.w	r5, r4, #128	; 0x80
 8000570:	2350      	movs	r3, #80	; 0x50
 8000572:	e000      	b.n	8000576 <shell_update+0x46>
 8000574:	6823      	ldr	r3, [r4, #0]
 8000576:	429a      	cmp	r2, r3
 8000578:	d026      	beq.n	80005c8 <shell_update+0x98>
 800057a:	3408      	adds	r4, #8
 800057c:	42ac      	cmp	r4, r5
 800057e:	d1f9      	bne.n	8000574 <shell_update+0x44>
 8000580:	f1ba 0f0a 	cmp.w	sl, #10
 8000584:	d02a      	beq.n	80005dc <shell_update+0xac>
 8000586:	f1aa 0320 	sub.w	r3, sl, #32
 800058a:	2b5e      	cmp	r3, #94	; 0x5e
 800058c:	d821      	bhi.n	80005d2 <shell_update+0xa2>
 800058e:	444f      	add	r7, r9
 8000590:	eb08 07c7 	add.w	r7, r8, r7, lsl #3
 8000594:	e9d7 2305 	ldrd	r2, r3, [r7, #20]
 8000598:	4293      	cmp	r3, r2
 800059a:	d140      	bne.n	800061e <shell_update+0xee>
 800059c:	693a      	ldr	r2, [r7, #16]
 800059e:	2a38      	cmp	r2, #56	; 0x38
 80005a0:	dc17      	bgt.n	80005d2 <shell_update+0xa2>
 80005a2:	f106 011c 	add.w	r1, r6, #28
 80005a6:	4419      	add	r1, r3
 80005a8:	4441      	add	r1, r8
 80005aa:	1ad2      	subs	r2, r2, r3
 80005ac:	1c48      	adds	r0, r1, #1
 80005ae:	f002 fc6b 	bl	8002e88 <memmove>
 80005b2:	e9d7 2304 	ldrd	r2, r3, [r7, #16]
 80005b6:	18f9      	adds	r1, r7, r3
 80005b8:	3201      	adds	r2, #1
 80005ba:	3301      	adds	r3, #1
 80005bc:	f881 a01c 	strb.w	sl, [r1, #28]
 80005c0:	e9c7 3305 	strd	r3, r3, [r7, #20]
 80005c4:	613a      	str	r2, [r7, #16]
 80005c6:	e004      	b.n	80005d2 <shell_update+0xa2>
 80005c8:	6863      	ldr	r3, [r4, #4]
 80005ca:	4658      	mov	r0, fp
 80005cc:	4798      	blx	r3
 80005ce:	42ac      	cmp	r4, r5
 80005d0:	d0d6      	beq.n	8000580 <shell_update+0x50>
 80005d2:	f7ff feb9 	bl	8000348 <command_render>
 80005d6:	b005      	add	sp, #20
 80005d8:	e8bd 8ff0 	ldmia.w	sp!, {r4, r5, r6, r7, r8, r9, sl, fp, pc}
 80005dc:	2501      	movs	r5, #1
 80005de:	2400      	movs	r4, #0
 80005e0:	4620      	mov	r0, r4
 80005e2:	f44f 62e4 	mov.w	r2, #1824	; 0x720
 80005e6:	4629      	mov	r1, r5
 80005e8:	3401      	adds	r4, #1
 80005ea:	f000 f885 	bl	80006f8 <terminal_set>
 80005ee:	2c3c      	cmp	r4, #60	; 0x3c
 80005f0:	d1f6      	bne.n	80005e0 <shell_update+0xb0>
 80005f2:	3501      	adds	r5, #1
 80005f4:	2d14      	cmp	r5, #20
 80005f6:	d1f2      	bne.n	80005de <shell_update+0xae>
 80005f8:	444f      	add	r7, r9
 80005fa:	eb08 07c7 	add.w	r7, r8, r7, lsl #3
 80005fe:	2300      	movs	r3, #0
 8000600:	6939      	ldr	r1, [r7, #16]
 8000602:	440f      	add	r7, r1
 8000604:	f106 001c 	add.w	r0, r6, #28
 8000608:	2401      	movs	r4, #1
 800060a:	2207      	movs	r2, #7
 800060c:	4440      	add	r0, r8
 800060e:	773b      	strb	r3, [r7, #28]
 8000610:	e9c8 3401 	strd	r3, r4, [r8, #4]
 8000614:	f8c8 200c 	str.w	r2, [r8, #12]
 8000618:	f7ff fe24 	bl	8000264 <command_run>
 800061c:	e7d9      	b.n	80005d2 <shell_update+0xa2>
 800061e:	4658      	mov	r0, fp
 8000620:	2201      	movs	r2, #1
 8000622:	a901      	add	r1, sp, #4
 8000624:	f88d a004 	strb.w	sl, [sp, #4]
 8000628:	f7ff ff22 	bl	8000470 <selection_replace>
 800062c:	e7d1      	b.n	80005d2 <shell_update+0xa2>
 800062e:	bf00      	nop
 8000630:	0800370c 	.word	0x0800370c
 8000634:	2000000c 	.word	0x2000000c

08000638 <shell_char>:
 8000638:	b510      	push	{r4, lr}
 800063a:	4c0f      	ldr	r4, [pc, #60]	; (8000678 <shell_char+0x40>)
 800063c:	280a      	cmp	r0, #10
 800063e:	68a1      	ldr	r1, [r4, #8]
 8000640:	d013      	beq.n	800066a <shell_char+0x32>
 8000642:	2913      	cmp	r1, #19
 8000644:	dd00      	ble.n	8000648 <shell_char+0x10>
 8000646:	bd10      	pop	{r4, pc}
 8000648:	68e3      	ldr	r3, [r4, #12]
 800064a:	4602      	mov	r2, r0
 800064c:	ea42 2203 	orr.w	r2, r2, r3, lsl #8
 8000650:	6860      	ldr	r0, [r4, #4]
 8000652:	f000 f851 	bl	80006f8 <terminal_set>
 8000656:	6863      	ldr	r3, [r4, #4]
 8000658:	3301      	adds	r3, #1
 800065a:	2b3b      	cmp	r3, #59	; 0x3b
 800065c:	dd0a      	ble.n	8000674 <shell_char+0x3c>
 800065e:	68a3      	ldr	r3, [r4, #8]
 8000660:	2200      	movs	r2, #0
 8000662:	3301      	adds	r3, #1
 8000664:	e9c4 2301 	strd	r2, r3, [r4, #4]
 8000668:	bd10      	pop	{r4, pc}
 800066a:	3101      	adds	r1, #1
 800066c:	2300      	movs	r3, #0
 800066e:	e9c4 3101 	strd	r3, r1, [r4, #4]
 8000672:	bd10      	pop	{r4, pc}
 8000674:	6063      	str	r3, [r4, #4]
 8000676:	bd10      	pop	{r4, pc}
 8000678:	2000000c 	.word	0x2000000c

0800067c <shell_print>:
 800067c:	b510      	push	{r4, lr}
 800067e:	4604      	mov	r4, r0
 8000680:	f814 0b01 	ldrb.w	r0, [r4], #1
 8000684:	b128      	cbz	r0, 8000692 <shell_print+0x16>
 8000686:	f7ff ffd7 	bl	8000638 <shell_char>
 800068a:	f814 0b01 	ldrb.w	r0, [r4], #1
 800068e:	2800      	cmp	r0, #0
 8000690:	d1f9      	bne.n	8000686 <shell_print+0xa>
 8000692:	bd10      	pop	{r4, pc}

08000694 <shell_fg>:
 8000694:	4b01      	ldr	r3, [pc, #4]	; (800069c <shell_fg+0x8>)
 8000696:	60d8      	str	r0, [r3, #12]
 8000698:	4770      	bx	lr
 800069a:	bf00      	nop
 800069c:	2000000c 	.word	0x2000000c

080006a0 <main>:
 80006a0:	b508      	push	{r3, lr}
 80006a2:	f002 f85f 	bl	8002764 <its_board_init>
 80006a6:	f001 fff1 	bl	800268c <timer_init>
 80006aa:	2200      	movs	r2, #0
 80006ac:	f44f 717a 	mov.w	r1, #1000	; 0x3e8
 80006b0:	2006      	movs	r0, #6
 80006b2:	f002 fac5 	bl	8002c40 <lcd_init>
 80006b6:	f001 fd17 	bl	80020e8 <ps2_init>
 80006ba:	f7ff ff2f 	bl	800051c <shell_init>
 80006be:	f7ff ff37 	bl	8000530 <shell_update>
 80006c2:	e7fc      	b.n	80006be <main+0x1e>

080006c4 <clipboard_get>:
 80006c4:	4b02      	ldr	r3, [pc, #8]	; (80006d0 <clipboard_get+0xc>)
 80006c6:	f853 2b04 	ldr.w	r2, [r3], #4
 80006ca:	6002      	str	r2, [r0, #0]
 80006cc:	4618      	mov	r0, r3
 80006ce:	4770      	bx	lr
 80006d0:	2000013c 	.word	0x2000013c

080006d4 <clipboard_save>:
 80006d4:	f5b1 7f00 	cmp.w	r1, #512	; 0x200
 80006d8:	dd01      	ble.n	80006de <clipboard_save+0xa>
 80006da:	2000      	movs	r0, #0
 80006dc:	4770      	bx	lr
 80006de:	b508      	push	{r3, lr}
 80006e0:	4603      	mov	r3, r0
 80006e2:	4804      	ldr	r0, [pc, #16]	; (80006f4 <clipboard_save+0x20>)
 80006e4:	460a      	mov	r2, r1
 80006e6:	f840 2b04 	str.w	r2, [r0], #4
 80006ea:	4619      	mov	r1, r3
 80006ec:	f002 fbba 	bl	8002e64 <memcpy>
 80006f0:	2001      	movs	r0, #1
 80006f2:	bd08      	pop	{r3, pc}
 80006f4:	2000013c 	.word	0x2000013c

080006f8 <terminal_set>:
 80006f8:	ebc1 1301 	rsb	r3, r1, r1, lsl #4
 80006fc:	b530      	push	{r4, r5, lr}
 80006fe:	eb00 0383 	add.w	r3, r0, r3, lsl #2
 8000702:	4c0f      	ldr	r4, [pc, #60]	; (8000740 <terminal_set+0x48>)
 8000704:	f834 5013 	ldrh.w	r5, [r4, r3, lsl #1]
 8000708:	4295      	cmp	r5, r2
 800070a:	b083      	sub	sp, #12
 800070c:	d016      	beq.n	800073c <terminal_set+0x44>
 800070e:	f824 2013 	strh.w	r2, [r4, r3, lsl #1]
 8000712:	4d0c      	ldr	r5, [pc, #48]	; (8000744 <terminal_set+0x4c>)
 8000714:	1314      	asrs	r4, r2, #12
 8000716:	f3c2 2303 	ubfx	r3, r2, #8, #4
 800071a:	0109      	lsls	r1, r1, #4
 800071c:	f835 3013 	ldrh.w	r3, [r5, r3, lsl #1]
 8000720:	f835 5014 	ldrh.w	r5, [r5, r4, lsl #1]
 8000724:	b2d4      	uxtb	r4, r2
 8000726:	0512      	lsls	r2, r2, #20
 8000728:	bf4c      	ite	mi
 800072a:	4a07      	ldrmi	r2, [pc, #28]	; (8000748 <terminal_set+0x50>)
 800072c:	4a07      	ldrpl	r2, [pc, #28]	; (800074c <terminal_set+0x54>)
 800072e:	6812      	ldr	r2, [r2, #0]
 8000730:	00c0      	lsls	r0, r0, #3
 8000732:	e9cd 5200 	strd	r5, r2, [sp]
 8000736:	4622      	mov	r2, r4
 8000738:	f001 ff40 	bl	80025bc <font_char>
 800073c:	b003      	add	sp, #12
 800073e:	bd30      	pop	{r4, r5, pc}
 8000740:	20000340 	.word	0x20000340
 8000744:	0800378c 	.word	0x0800378c
 8000748:	0800424c 	.word	0x0800424c
 800074c:	08003c38 	.word	0x08003c38

08000750 <nanoc_if>:
 8000750:	e92d 41f0 	stmdb	sp!, {r4, r5, r6, r7, r8, lr}
 8000754:	f500 74a0 	add.w	r4, r0, #320	; 0x140
 8000758:	4606      	mov	r6, r0
 800075a:	4620      	mov	r0, r4
 800075c:	f001 faf8 	bl	8001d50 <nanoc_tokenstream_next>
 8000760:	4620      	mov	r0, r4
 8000762:	2100      	movs	r1, #0
 8000764:	f001 fae2 	bl	8001d2c <nanoc_tokenstream_get>
 8000768:	7c03      	ldrb	r3, [r0, #16]
 800076a:	2b16      	cmp	r3, #22
 800076c:	d003      	beq.n	8000776 <nanoc_if+0x26>
 800076e:	2503      	movs	r5, #3
 8000770:	4628      	mov	r0, r5
 8000772:	e8bd 81f0 	ldmia.w	sp!, {r4, r5, r6, r7, r8, pc}
 8000776:	4620      	mov	r0, r4
 8000778:	f001 faea 	bl	8001d50 <nanoc_tokenstream_next>
 800077c:	4630      	mov	r0, r6
 800077e:	f000 fd11 	bl	80011a4 <nanoc_expression>
 8000782:	4605      	mov	r5, r0
 8000784:	2800      	cmp	r0, #0
 8000786:	d1f3      	bne.n	8000770 <nanoc_if+0x20>
 8000788:	4601      	mov	r1, r0
 800078a:	4620      	mov	r0, r4
 800078c:	f001 face 	bl	8001d2c <nanoc_tokenstream_get>
 8000790:	7c03      	ldrb	r3, [r0, #16]
 8000792:	2b17      	cmp	r3, #23
 8000794:	d003      	beq.n	800079e <nanoc_if+0x4e>
 8000796:	2504      	movs	r5, #4
 8000798:	4628      	mov	r0, r5
 800079a:	e8bd 81f0 	ldmia.w	sp!, {r4, r5, r6, r7, r8, pc}
 800079e:	f506 77c2 	add.w	r7, r6, #388	; 0x184
 80007a2:	2106      	movs	r1, #6
 80007a4:	4638      	mov	r0, r7
 80007a6:	f000 ff17 	bl	80015d8 <nanoc_output_unknown_jump>
 80007aa:	4680      	mov	r8, r0
 80007ac:	4620      	mov	r0, r4
 80007ae:	f001 facf 	bl	8001d50 <nanoc_tokenstream_next>
 80007b2:	4630      	mov	r0, r6
 80007b4:	f001 f948 	bl	8001a48 <nanoc_block>
 80007b8:	4605      	mov	r5, r0
 80007ba:	2800      	cmp	r0, #0
 80007bc:	d1d8      	bne.n	8000770 <nanoc_if+0x20>
 80007be:	4641      	mov	r1, r8
 80007c0:	4638      	mov	r0, r7
 80007c2:	f000 ff23 	bl	800160c <nanoc_output_jump_here>
 80007c6:	2101      	movs	r1, #1
 80007c8:	4620      	mov	r0, r4
 80007ca:	f001 faaf 	bl	8001d2c <nanoc_tokenstream_get>
 80007ce:	7c03      	ldrb	r3, [r0, #16]
 80007d0:	2b07      	cmp	r3, #7
 80007d2:	d1cd      	bne.n	8000770 <nanoc_if+0x20>
 80007d4:	210a      	movs	r1, #10
 80007d6:	4638      	mov	r0, r7
 80007d8:	f000 fefe 	bl	80015d8 <nanoc_output_unknown_jump>
 80007dc:	4680      	mov	r8, r0
 80007de:	4620      	mov	r0, r4
 80007e0:	f001 fab6 	bl	8001d50 <nanoc_tokenstream_next>
 80007e4:	2101      	movs	r1, #1
 80007e6:	4620      	mov	r0, r4
 80007e8:	f001 faa0 	bl	8001d2c <nanoc_tokenstream_get>
 80007ec:	7c03      	ldrb	r3, [r0, #16]
 80007ee:	2b06      	cmp	r3, #6
 80007f0:	4620      	mov	r0, r4
 80007f2:	d00a      	beq.n	800080a <nanoc_if+0xba>
 80007f4:	f001 faac 	bl	8001d50 <nanoc_tokenstream_next>
 80007f8:	4630      	mov	r0, r6
 80007fa:	f001 f925 	bl	8001a48 <nanoc_block>
 80007fe:	b958      	cbnz	r0, 8000818 <nanoc_if+0xc8>
 8000800:	4641      	mov	r1, r8
 8000802:	4638      	mov	r0, r7
 8000804:	f000 ff02 	bl	800160c <nanoc_output_jump_here>
 8000808:	e7b2      	b.n	8000770 <nanoc_if+0x20>
 800080a:	f001 faa1 	bl	8001d50 <nanoc_tokenstream_next>
 800080e:	4630      	mov	r0, r6
 8000810:	f7ff ff9e 	bl	8000750 <nanoc_if>
 8000814:	2800      	cmp	r0, #0
 8000816:	d0f3      	beq.n	8000800 <nanoc_if+0xb0>
 8000818:	4605      	mov	r5, r0
 800081a:	e7a9      	b.n	8000770 <nanoc_if+0x20>

0800081c <handle_break_continue>:
 800081c:	e92d 4ff8 	stmdb	sp!, {r3, r4, r5, r6, r7, r8, r9, sl, fp, lr}
 8000820:	468a      	mov	sl, r1
 8000822:	f890 1190 	ldrb.w	r1, [r0, #400]	; 0x190
 8000826:	f8d0 9188 	ldr.w	r9, [r0, #392]	; 0x188
 800082a:	4607      	mov	r7, r0
 800082c:	458a      	cmp	sl, r1
 800082e:	f8d0 0194 	ldr.w	r0, [r0, #404]	; 0x194
 8000832:	4690      	mov	r8, r2
 8000834:	461e      	mov	r6, r3
 8000836:	f507 75c2 	add.w	r5, r7, #388	; 0x184
 800083a:	d20d      	bcs.n	8000858 <handle_break_continue+0x3c>
 800083c:	eb00 0441 	add.w	r4, r0, r1, lsl #1
 8000840:	eb00 0b4a 	add.w	fp, r0, sl, lsl #1
 8000844:	f834 1d02 	ldrh.w	r1, [r4, #-2]!
 8000848:	464a      	mov	r2, r9
 800084a:	4628      	mov	r0, r5
 800084c:	f000 fe78 	bl	8001540 <nanoc_output_emit16_at>
 8000850:	455c      	cmp	r4, fp
 8000852:	d1f7      	bne.n	8000844 <handle_break_continue+0x28>
 8000854:	fa5f f18a 	uxtb.w	r1, sl
 8000858:	f897 4198 	ldrb.w	r4, [r7, #408]	; 0x198
 800085c:	f887 1190 	strb.w	r1, [r7, #400]	; 0x190
 8000860:	45a0      	cmp	r8, r4
 8000862:	f8d7 319c 	ldr.w	r3, [r7, #412]	; 0x19c
 8000866:	d20d      	bcs.n	8000884 <handle_break_continue+0x68>
 8000868:	eb03 0444 	add.w	r4, r3, r4, lsl #1
 800086c:	eb03 0948 	add.w	r9, r3, r8, lsl #1
 8000870:	f834 1d02 	ldrh.w	r1, [r4, #-2]!
 8000874:	4632      	mov	r2, r6
 8000876:	4628      	mov	r0, r5
 8000878:	f000 fe62 	bl	8001540 <nanoc_output_emit16_at>
 800087c:	45a1      	cmp	r9, r4
 800087e:	d1f7      	bne.n	8000870 <handle_break_continue+0x54>
 8000880:	fa5f f488 	uxtb.w	r4, r8
 8000884:	f887 4198 	strb.w	r4, [r7, #408]	; 0x198
 8000888:	e8bd 8ff8 	ldmia.w	sp!, {r3, r4, r5, r6, r7, r8, r9, sl, fp, pc}

0800088c <loop_nest>:
 800088c:	b510      	push	{r4, lr}
 800088e:	f890 21ae 	ldrb.w	r2, [r0, #430]	; 0x1ae
 8000892:	f890 31af 	ldrb.w	r3, [r0, #431]	; 0x1af
 8000896:	3201      	adds	r2, #1
 8000898:	3301      	adds	r3, #1
 800089a:	f880 21ae 	strb.w	r2, [r0, #430]	; 0x1ae
 800089e:	f880 31af 	strb.w	r3, [r0, #431]	; 0x1af
 80008a2:	4604      	mov	r4, r0
 80008a4:	f001 f8d0 	bl	8001a48 <nanoc_block>
 80008a8:	b948      	cbnz	r0, 80008be <loop_nest+0x32>
 80008aa:	f894 21ae 	ldrb.w	r2, [r4, #430]	; 0x1ae
 80008ae:	f894 31af 	ldrb.w	r3, [r4, #431]	; 0x1af
 80008b2:	3a01      	subs	r2, #1
 80008b4:	3b01      	subs	r3, #1
 80008b6:	f884 21ae 	strb.w	r2, [r4, #430]	; 0x1ae
 80008ba:	f884 31af 	strb.w	r3, [r4, #431]	; 0x1af
 80008be:	bd10      	pop	{r4, pc}

080008c0 <nanoc_loop>:
 80008c0:	e92d 41f0 	stmdb	sp!, {r4, r5, r6, r7, r8, lr}
 80008c4:	4604      	mov	r4, r0
 80008c6:	f500 70a0 	add.w	r0, r0, #320	; 0x140
 80008ca:	f894 7190 	ldrb.w	r7, [r4, #400]	; 0x190
 80008ce:	f894 8198 	ldrb.w	r8, [r4, #408]	; 0x198
 80008d2:	f8d4 6188 	ldr.w	r6, [r4, #392]	; 0x188
 80008d6:	f001 fa3b 	bl	8001d50 <nanoc_tokenstream_next>
 80008da:	4620      	mov	r0, r4
 80008dc:	f7ff ffd6 	bl	800088c <loop_nest>
 80008e0:	4605      	mov	r5, r0
 80008e2:	b958      	cbnz	r0, 80008fc <nanoc_loop+0x3c>
 80008e4:	4632      	mov	r2, r6
 80008e6:	210a      	movs	r1, #10
 80008e8:	f504 70c2 	add.w	r0, r4, #388	; 0x184
 80008ec:	f000 fe7c 	bl	80015e8 <nanoc_output_jump>
 80008f0:	4633      	mov	r3, r6
 80008f2:	4642      	mov	r2, r8
 80008f4:	4639      	mov	r1, r7
 80008f6:	4620      	mov	r0, r4
 80008f8:	f7ff ff90 	bl	800081c <handle_break_continue>
 80008fc:	4628      	mov	r0, r5
 80008fe:	e8bd 81f0 	ldmia.w	sp!, {r4, r5, r6, r7, r8, pc}
 8000902:	bf00      	nop

08000904 <nanoc_while>:
 8000904:	e92d 4ff8 	stmdb	sp!, {r3, r4, r5, r6, r7, r8, r9, sl, fp, lr}
 8000908:	4604      	mov	r4, r0
 800090a:	f500 75a0 	add.w	r5, r0, #320	; 0x140
 800090e:	4628      	mov	r0, r5
 8000910:	f8d4 7188 	ldr.w	r7, [r4, #392]	; 0x188
 8000914:	f894 8190 	ldrb.w	r8, [r4, #400]	; 0x190
 8000918:	f894 9198 	ldrb.w	r9, [r4, #408]	; 0x198
 800091c:	f001 fa18 	bl	8001d50 <nanoc_tokenstream_next>
 8000920:	4628      	mov	r0, r5
 8000922:	2100      	movs	r1, #0
 8000924:	f001 fa02 	bl	8001d2c <nanoc_tokenstream_get>
 8000928:	7c03      	ldrb	r3, [r0, #16]
 800092a:	2b16      	cmp	r3, #22
 800092c:	d003      	beq.n	8000936 <nanoc_while+0x32>
 800092e:	2603      	movs	r6, #3
 8000930:	4630      	mov	r0, r6
 8000932:	e8bd 8ff8 	ldmia.w	sp!, {r3, r4, r5, r6, r7, r8, r9, sl, fp, pc}
 8000936:	4628      	mov	r0, r5
 8000938:	f001 fa0a 	bl	8001d50 <nanoc_tokenstream_next>
 800093c:	4620      	mov	r0, r4
 800093e:	f000 fc31 	bl	80011a4 <nanoc_expression>
 8000942:	4606      	mov	r6, r0
 8000944:	2800      	cmp	r0, #0
 8000946:	d1f3      	bne.n	8000930 <nanoc_while+0x2c>
 8000948:	4601      	mov	r1, r0
 800094a:	4628      	mov	r0, r5
 800094c:	f001 f9ee 	bl	8001d2c <nanoc_tokenstream_get>
 8000950:	7c03      	ldrb	r3, [r0, #16]
 8000952:	2b17      	cmp	r3, #23
 8000954:	d003      	beq.n	800095e <nanoc_while+0x5a>
 8000956:	2604      	movs	r6, #4
 8000958:	4630      	mov	r0, r6
 800095a:	e8bd 8ff8 	ldmia.w	sp!, {r3, r4, r5, r6, r7, r8, r9, sl, fp, pc}
 800095e:	f504 7ac2 	add.w	sl, r4, #388	; 0x184
 8000962:	2106      	movs	r1, #6
 8000964:	4650      	mov	r0, sl
 8000966:	f000 fe37 	bl	80015d8 <nanoc_output_unknown_jump>
 800096a:	4683      	mov	fp, r0
 800096c:	4628      	mov	r0, r5
 800096e:	f001 f9ef 	bl	8001d50 <nanoc_tokenstream_next>
 8000972:	4620      	mov	r0, r4
 8000974:	f7ff ff8a 	bl	800088c <loop_nest>
 8000978:	4606      	mov	r6, r0
 800097a:	2800      	cmp	r0, #0
 800097c:	d1d8      	bne.n	8000930 <nanoc_while+0x2c>
 800097e:	463a      	mov	r2, r7
 8000980:	4650      	mov	r0, sl
 8000982:	210a      	movs	r1, #10
 8000984:	f000 fe30 	bl	80015e8 <nanoc_output_jump>
 8000988:	4659      	mov	r1, fp
 800098a:	4650      	mov	r0, sl
 800098c:	f8d4 2188 	ldr.w	r2, [r4, #392]	; 0x188
 8000990:	f000 fdd6 	bl	8001540 <nanoc_output_emit16_at>
 8000994:	463b      	mov	r3, r7
 8000996:	464a      	mov	r2, r9
 8000998:	4641      	mov	r1, r8
 800099a:	4620      	mov	r0, r4
 800099c:	f7ff ff3e 	bl	800081c <handle_break_continue>
 80009a0:	e7c6      	b.n	8000930 <nanoc_while+0x2c>
 80009a2:	bf00      	nop

080009a4 <nanoc_do_while>:
 80009a4:	e92d 43f8 	stmdb	sp!, {r3, r4, r5, r6, r7, r8, r9, lr}
 80009a8:	4604      	mov	r4, r0
 80009aa:	f500 76a0 	add.w	r6, r0, #320	; 0x140
 80009ae:	4630      	mov	r0, r6
 80009b0:	f8d4 9188 	ldr.w	r9, [r4, #392]	; 0x188
 80009b4:	f894 7190 	ldrb.w	r7, [r4, #400]	; 0x190
 80009b8:	f894 8198 	ldrb.w	r8, [r4, #408]	; 0x198
 80009bc:	f001 f9c8 	bl	8001d50 <nanoc_tokenstream_next>
 80009c0:	4620      	mov	r0, r4
 80009c2:	f7ff ff63 	bl	800088c <loop_nest>
 80009c6:	4605      	mov	r5, r0
 80009c8:	b110      	cbz	r0, 80009d0 <nanoc_do_while+0x2c>
 80009ca:	4628      	mov	r0, r5
 80009cc:	e8bd 83f8 	ldmia.w	sp!, {r3, r4, r5, r6, r7, r8, r9, pc}
 80009d0:	4630      	mov	r0, r6
 80009d2:	f001 f9bd 	bl	8001d50 <nanoc_tokenstream_next>
 80009d6:	4629      	mov	r1, r5
 80009d8:	4630      	mov	r0, r6
 80009da:	f001 f9a7 	bl	8001d2c <nanoc_tokenstream_get>
 80009de:	7c03      	ldrb	r3, [r0, #16]
 80009e0:	2b09      	cmp	r3, #9
 80009e2:	d10d      	bne.n	8000a00 <nanoc_do_while+0x5c>
 80009e4:	4630      	mov	r0, r6
 80009e6:	f001 f9b3 	bl	8001d50 <nanoc_tokenstream_next>
 80009ea:	4629      	mov	r1, r5
 80009ec:	4630      	mov	r0, r6
 80009ee:	f001 f99d 	bl	8001d2c <nanoc_tokenstream_get>
 80009f2:	7c03      	ldrb	r3, [r0, #16]
 80009f4:	2b16      	cmp	r3, #22
 80009f6:	d007      	beq.n	8000a08 <nanoc_do_while+0x64>
 80009f8:	2503      	movs	r5, #3
 80009fa:	4628      	mov	r0, r5
 80009fc:	e8bd 83f8 	ldmia.w	sp!, {r3, r4, r5, r6, r7, r8, r9, pc}
 8000a00:	2506      	movs	r5, #6
 8000a02:	4628      	mov	r0, r5
 8000a04:	e8bd 83f8 	ldmia.w	sp!, {r3, r4, r5, r6, r7, r8, r9, pc}
 8000a08:	4630      	mov	r0, r6
 8000a0a:	f001 f9a1 	bl	8001d50 <nanoc_tokenstream_next>
 8000a0e:	4620      	mov	r0, r4
 8000a10:	f000 fbc8 	bl	80011a4 <nanoc_expression>
 8000a14:	4605      	mov	r5, r0
 8000a16:	2800      	cmp	r0, #0
 8000a18:	d1d7      	bne.n	80009ca <nanoc_do_while+0x26>
 8000a1a:	4601      	mov	r1, r0
 8000a1c:	4630      	mov	r0, r6
 8000a1e:	f001 f985 	bl	8001d2c <nanoc_tokenstream_get>
 8000a22:	7c03      	ldrb	r3, [r0, #16]
 8000a24:	2b17      	cmp	r3, #23
 8000a26:	d001      	beq.n	8000a2c <nanoc_do_while+0x88>
 8000a28:	2504      	movs	r5, #4
 8000a2a:	e7ce      	b.n	80009ca <nanoc_do_while+0x26>
 8000a2c:	4630      	mov	r0, r6
 8000a2e:	f001 f98f 	bl	8001d50 <nanoc_tokenstream_next>
 8000a32:	4629      	mov	r1, r5
 8000a34:	4630      	mov	r0, r6
 8000a36:	f001 f979 	bl	8001d2c <nanoc_tokenstream_get>
 8000a3a:	7c03      	ldrb	r3, [r0, #16]
 8000a3c:	2b1f      	cmp	r3, #31
 8000a3e:	d10e      	bne.n	8000a5e <nanoc_do_while+0xba>
 8000a40:	f8d4 6188 	ldr.w	r6, [r4, #392]	; 0x188
 8000a44:	464a      	mov	r2, r9
 8000a46:	f504 70c2 	add.w	r0, r4, #388	; 0x184
 8000a4a:	2107      	movs	r1, #7
 8000a4c:	f000 fdcc 	bl	80015e8 <nanoc_output_jump>
 8000a50:	4633      	mov	r3, r6
 8000a52:	4642      	mov	r2, r8
 8000a54:	4639      	mov	r1, r7
 8000a56:	4620      	mov	r0, r4
 8000a58:	f7ff fee0 	bl	800081c <handle_break_continue>
 8000a5c:	e7b5      	b.n	80009ca <nanoc_do_while+0x26>
 8000a5e:	2502      	movs	r5, #2
 8000a60:	e7b3      	b.n	80009ca <nanoc_do_while+0x26>
 8000a62:	bf00      	nop

08000a64 <nanoc_break>:
 8000a64:	b538      	push	{r3, r4, r5, lr}
 8000a66:	f500 74a0 	add.w	r4, r0, #320	; 0x140
 8000a6a:	4605      	mov	r5, r0
 8000a6c:	4620      	mov	r0, r4
 8000a6e:	f001 f96f 	bl	8001d50 <nanoc_tokenstream_next>
 8000a72:	4620      	mov	r0, r4
 8000a74:	2100      	movs	r1, #0
 8000a76:	f001 f959 	bl	8001d2c <nanoc_tokenstream_get>
 8000a7a:	7c03      	ldrb	r3, [r0, #16]
 8000a7c:	2b1f      	cmp	r3, #31
 8000a7e:	d106      	bne.n	8000a8e <nanoc_break+0x2a>
 8000a80:	f895 31ae 	ldrb.w	r3, [r5, #430]	; 0x1ae
 8000a84:	2b00      	cmp	r3, #0
 8000a86:	bf14      	ite	ne
 8000a88:	2000      	movne	r0, #0
 8000a8a:	2008      	moveq	r0, #8
 8000a8c:	bd38      	pop	{r3, r4, r5, pc}
 8000a8e:	2002      	movs	r0, #2
 8000a90:	bd38      	pop	{r3, r4, r5, pc}
 8000a92:	bf00      	nop

08000a94 <nanoc_continue>:
 8000a94:	b538      	push	{r3, r4, r5, lr}
 8000a96:	f500 74a0 	add.w	r4, r0, #320	; 0x140
 8000a9a:	4605      	mov	r5, r0
 8000a9c:	4620      	mov	r0, r4
 8000a9e:	f001 f957 	bl	8001d50 <nanoc_tokenstream_next>
 8000aa2:	4620      	mov	r0, r4
 8000aa4:	2100      	movs	r1, #0
 8000aa6:	f001 f941 	bl	8001d2c <nanoc_tokenstream_get>
 8000aaa:	7c03      	ldrb	r3, [r0, #16]
 8000aac:	2b1f      	cmp	r3, #31
 8000aae:	d106      	bne.n	8000abe <nanoc_continue+0x2a>
 8000ab0:	f895 31af 	ldrb.w	r3, [r5, #431]	; 0x1af
 8000ab4:	2b00      	cmp	r3, #0
 8000ab6:	bf14      	ite	ne
 8000ab8:	2000      	movne	r0, #0
 8000aba:	2009      	moveq	r0, #9
 8000abc:	bd38      	pop	{r3, r4, r5, pc}
 8000abe:	2002      	movs	r0, #2
 8000ac0:	bd38      	pop	{r3, r4, r5, pc}
 8000ac2:	bf00      	nop

08000ac4 <nanoc_isupper>:
 8000ac4:	6808      	ldr	r0, [r1, #0]
 8000ac6:	3841      	subs	r0, #65	; 0x41
 8000ac8:	2819      	cmp	r0, #25
 8000aca:	bf8c      	ite	hi
 8000acc:	2000      	movhi	r0, #0
 8000ace:	2001      	movls	r0, #1
 8000ad0:	4770      	bx	lr
 8000ad2:	bf00      	nop

08000ad4 <nanoc_islower>:
 8000ad4:	6808      	ldr	r0, [r1, #0]
 8000ad6:	3861      	subs	r0, #97	; 0x61
 8000ad8:	2819      	cmp	r0, #25
 8000ada:	bf8c      	ite	hi
 8000adc:	2000      	movhi	r0, #0
 8000ade:	2001      	movls	r0, #1
 8000ae0:	4770      	bx	lr
 8000ae2:	bf00      	nop

08000ae4 <nanoc_isdigit>:
 8000ae4:	6808      	ldr	r0, [r1, #0]
 8000ae6:	3830      	subs	r0, #48	; 0x30
 8000ae8:	2809      	cmp	r0, #9
 8000aea:	bf8c      	ite	hi
 8000aec:	2000      	movhi	r0, #0
 8000aee:	2001      	movls	r0, #1
 8000af0:	4770      	bx	lr
 8000af2:	bf00      	nop

08000af4 <nanoc_isalpha>:
 8000af4:	6808      	ldr	r0, [r1, #0]
 8000af6:	f020 0020 	bic.w	r0, r0, #32
 8000afa:	3841      	subs	r0, #65	; 0x41
 8000afc:	2819      	cmp	r0, #25
 8000afe:	bf8c      	ite	hi
 8000b00:	2000      	movhi	r0, #0
 8000b02:	2001      	movls	r0, #1
 8000b04:	4770      	bx	lr
 8000b06:	bf00      	nop

08000b08 <nanoc_isalnum>:
 8000b08:	6808      	ldr	r0, [r1, #0]
 8000b0a:	f020 0320 	bic.w	r3, r0, #32
 8000b0e:	3b41      	subs	r3, #65	; 0x41
 8000b10:	2b19      	cmp	r3, #25
 8000b12:	d905      	bls.n	8000b20 <nanoc_isalnum+0x18>
 8000b14:	3830      	subs	r0, #48	; 0x30
 8000b16:	2809      	cmp	r0, #9
 8000b18:	bf8c      	ite	hi
 8000b1a:	2000      	movhi	r0, #0
 8000b1c:	2001      	movls	r0, #1
 8000b1e:	4770      	bx	lr
 8000b20:	2001      	movs	r0, #1
 8000b22:	4770      	bx	lr

08000b24 <nanoc_isprint>:
 8000b24:	6808      	ldr	r0, [r1, #0]
 8000b26:	3820      	subs	r0, #32
 8000b28:	285e      	cmp	r0, #94	; 0x5e
 8000b2a:	bf8c      	ite	hi
 8000b2c:	2000      	movhi	r0, #0
 8000b2e:	2001      	movls	r0, #1
 8000b30:	4770      	bx	lr
 8000b32:	bf00      	nop

08000b34 <nanoc_isspace>:
 8000b34:	6808      	ldr	r0, [r1, #0]
 8000b36:	2820      	cmp	r0, #32
 8000b38:	d005      	beq.n	8000b46 <nanoc_isspace+0x12>
 8000b3a:	3809      	subs	r0, #9
 8000b3c:	2801      	cmp	r0, #1
 8000b3e:	bf8c      	ite	hi
 8000b40:	2000      	movhi	r0, #0
 8000b42:	2001      	movls	r0, #1
 8000b44:	4770      	bx	lr
 8000b46:	2001      	movs	r0, #1
 8000b48:	4770      	bx	lr
 8000b4a:	bf00      	nop

08000b4c <nanoc_isxdigit>:
 8000b4c:	6808      	ldr	r0, [r1, #0]
 8000b4e:	f1a0 0330 	sub.w	r3, r0, #48	; 0x30
 8000b52:	2b09      	cmp	r3, #9
 8000b54:	d907      	bls.n	8000b66 <nanoc_isxdigit+0x1a>
 8000b56:	f020 0020 	bic.w	r0, r0, #32
 8000b5a:	3841      	subs	r0, #65	; 0x41
 8000b5c:	2805      	cmp	r0, #5
 8000b5e:	bf8c      	ite	hi
 8000b60:	2000      	movhi	r0, #0
 8000b62:	2001      	movls	r0, #1
 8000b64:	4770      	bx	lr
 8000b66:	2001      	movs	r0, #1
 8000b68:	4770      	bx	lr
 8000b6a:	bf00      	nop

08000b6c <nanoc_tolower>:
 8000b6c:	6808      	ldr	r0, [r1, #0]
 8000b6e:	f1a0 0341 	sub.w	r3, r0, #65	; 0x41
 8000b72:	2b19      	cmp	r3, #25
 8000b74:	bf98      	it	ls
 8000b76:	3020      	addls	r0, #32
 8000b78:	4770      	bx	lr
 8000b7a:	bf00      	nop

08000b7c <nanoc_toupper>:
 8000b7c:	6808      	ldr	r0, [r1, #0]
 8000b7e:	f1a0 0361 	sub.w	r3, r0, #97	; 0x61
 8000b82:	2b19      	cmp	r3, #25
 8000b84:	bf98      	it	ls
 8000b86:	3820      	subls	r0, #32
 8000b88:	4770      	bx	lr
 8000b8a:	bf00      	nop

08000b8c <nanoc_interpreter_run>:
 8000b8c:	e92d 4ff0 	stmdb	sp!, {r4, r5, r6, r7, r8, r9, sl, fp, lr}
 8000b90:	2400      	movs	r4, #0
 8000b92:	f8df 8554 	ldr.w	r8, [pc, #1364]	; 80010e8 <nanoc_interpreter_run+0x55c>
 8000b96:	f6ad 0d8c 	subw	sp, sp, #2188	; 0x88c
 8000b9a:	4605      	mov	r5, r0
 8000b9c:	468b      	mov	fp, r1
 8000b9e:	4626      	mov	r6, r4
 8000ba0:	46a2      	mov	sl, r4
 8000ba2:	4622      	mov	r2, r4
 8000ba4:	5d2b      	ldrb	r3, [r5, r4]
 8000ba6:	2b24      	cmp	r3, #36	; 0x24
 8000ba8:	f200 8294 	bhi.w	80010d4 <nanoc_interpreter_run+0x548>
 8000bac:	e8df f013 	tbh	[pc, r3, lsl #1]
 8000bb0:	0230023a 	.word	0x0230023a
 8000bb4:	02500225 	.word	0x02500225
 8000bb8:	025b0242 	.word	0x025b0242
 8000bbc:	020e0219 	.word	0x020e0219
 8000bc0:	00250202 	.word	0x00250202
 8000bc4:	01cb002f 	.word	0x01cb002f
 8000bc8:	01bd01c2 	.word	0x01bd01c2
 8000bcc:	01ab01b1 	.word	0x01ab01b1
 8000bd0:	019501a0 	.word	0x019501a0
 8000bd4:	01710183 	.word	0x01710183
 8000bd8:	014a015f 	.word	0x014a015f
 8000bdc:	01210136 	.word	0x01210136
 8000be0:	00f7010c 	.word	0x00f7010c
 8000be4:	00d000e2 	.word	0x00d000e2
 8000be8:	00ac00be 	.word	0x00ac00be
 8000bec:	0088009a 	.word	0x0088009a
 8000bf0:	004d0064 	.word	0x004d0064
 8000bf4:	00400079 	.word	0x00400079
 8000bf8:	0033      	.short	0x0033
 8000bfa:	2a00      	cmp	r2, #0
 8000bfc:	f000 8240 	beq.w	8001080 <nanoc_interpreter_run+0x4f4>
 8000c00:	1e53      	subs	r3, r2, #1
 8000c02:	a902      	add	r1, sp, #8
 8000c04:	f851 1023 	ldr.w	r1, [r1, r3, lsl #2]
 8000c08:	2900      	cmp	r1, #0
 8000c0a:	f000 81dc 	beq.w	8000fc6 <nanoc_interpreter_run+0x43a>
 8000c0e:	442c      	add	r4, r5
 8000c10:	f8b4 4001 	ldrh.w	r4, [r4, #1]
 8000c14:	e7c6      	b.n	8000ba4 <nanoc_interpreter_run+0x18>
 8000c16:	2a00      	cmp	r2, #0
 8000c18:	f000 8232 	beq.w	8001080 <nanoc_interpreter_run+0x4f4>
 8000c1c:	1e51      	subs	r1, r2, #1
 8000c1e:	ab02      	add	r3, sp, #8
 8000c20:	a802      	add	r0, sp, #8
 8000c22:	f853 3021 	ldr.w	r3, [r3, r1, lsl #2]
 8000c26:	425b      	negs	r3, r3
 8000c28:	3401      	adds	r4, #1
 8000c2a:	f840 3021 	str.w	r3, [r0, r1, lsl #2]
 8000c2e:	e7b9      	b.n	8000ba4 <nanoc_interpreter_run+0x18>
 8000c30:	2a00      	cmp	r2, #0
 8000c32:	f000 8225 	beq.w	8001080 <nanoc_interpreter_run+0x4f4>
 8000c36:	1e51      	subs	r1, r2, #1
 8000c38:	ab02      	add	r3, sp, #8
 8000c3a:	a802      	add	r0, sp, #8
 8000c3c:	f853 3021 	ldr.w	r3, [r3, r1, lsl #2]
 8000c40:	43db      	mvns	r3, r3
 8000c42:	3401      	adds	r4, #1
 8000c44:	f840 3021 	str.w	r3, [r0, r1, lsl #2]
 8000c48:	e7ac      	b.n	8000ba4 <nanoc_interpreter_run+0x18>
 8000c4a:	2a01      	cmp	r2, #1
 8000c4c:	f240 8218 	bls.w	8001080 <nanoc_interpreter_run+0x4f4>
 8000c50:	ab02      	add	r3, sp, #8
 8000c52:	1e50      	subs	r0, r2, #1
 8000c54:	1e91      	subs	r1, r2, #2
 8000c56:	f853 2020 	ldr.w	r2, [r3, r0, lsl #2]
 8000c5a:	f853 7021 	ldr.w	r7, [r3, r1, lsl #2]
 8000c5e:	2a00      	cmp	r2, #0
 8000c60:	f000 8236 	beq.w	80010d0 <nanoc_interpreter_run+0x544>
 8000c64:	fb97 f3f2 	sdiv	r3, r7, r2
 8000c68:	fb02 7313 	mls	r3, r2, r3, r7
 8000c6c:	4602      	mov	r2, r0
 8000c6e:	a802      	add	r0, sp, #8
 8000c70:	3401      	adds	r4, #1
 8000c72:	f840 3021 	str.w	r3, [r0, r1, lsl #2]
 8000c76:	e795      	b.n	8000ba4 <nanoc_interpreter_run+0x18>
 8000c78:	2a01      	cmp	r2, #1
 8000c7a:	f240 8201 	bls.w	8001080 <nanoc_interpreter_run+0x4f4>
 8000c7e:	1e51      	subs	r1, r2, #1
 8000c80:	ab02      	add	r3, sp, #8
 8000c82:	3a02      	subs	r2, #2
 8000c84:	f853 0021 	ldr.w	r0, [r3, r1, lsl #2]
 8000c88:	f853 3022 	ldr.w	r3, [r3, r2, lsl #2]
 8000c8c:	2800      	cmp	r0, #0
 8000c8e:	f000 821f 	beq.w	80010d0 <nanoc_interpreter_run+0x544>
 8000c92:	fb93 f3f0 	sdiv	r3, r3, r0
 8000c96:	a802      	add	r0, sp, #8
 8000c98:	3401      	adds	r4, #1
 8000c9a:	f840 3022 	str.w	r3, [r0, r2, lsl #2]
 8000c9e:	460a      	mov	r2, r1
 8000ca0:	e780      	b.n	8000ba4 <nanoc_interpreter_run+0x18>
 8000ca2:	2a00      	cmp	r2, #0
 8000ca4:	f000 81ec 	beq.w	8001080 <nanoc_interpreter_run+0x4f4>
 8000ca8:	1e51      	subs	r1, r2, #1
 8000caa:	ab02      	add	r3, sp, #8
 8000cac:	a802      	add	r0, sp, #8
 8000cae:	f853 3021 	ldr.w	r3, [r3, r1, lsl #2]
 8000cb2:	fab3 f383 	clz	r3, r3
 8000cb6:	095b      	lsrs	r3, r3, #5
 8000cb8:	3401      	adds	r4, #1
 8000cba:	f840 3021 	str.w	r3, [r0, r1, lsl #2]
 8000cbe:	e771      	b.n	8000ba4 <nanoc_interpreter_run+0x18>
 8000cc0:	2a01      	cmp	r2, #1
 8000cc2:	f240 81dd 	bls.w	8001080 <nanoc_interpreter_run+0x4f4>
 8000cc6:	1e51      	subs	r1, r2, #1
 8000cc8:	ab02      	add	r3, sp, #8
 8000cca:	3a02      	subs	r2, #2
 8000ccc:	3401      	adds	r4, #1
 8000cce:	f853 0022 	ldr.w	r0, [r3, r2, lsl #2]
 8000cd2:	f853 3021 	ldr.w	r3, [r3, r1, lsl #2]
 8000cd6:	fb03 f300 	mul.w	r3, r3, r0
 8000cda:	a802      	add	r0, sp, #8
 8000cdc:	f840 3022 	str.w	r3, [r0, r2, lsl #2]
 8000ce0:	460a      	mov	r2, r1
 8000ce2:	e75f      	b.n	8000ba4 <nanoc_interpreter_run+0x18>
 8000ce4:	2a01      	cmp	r2, #1
 8000ce6:	f240 81cb 	bls.w	8001080 <nanoc_interpreter_run+0x4f4>
 8000cea:	1e51      	subs	r1, r2, #1
 8000cec:	ab02      	add	r3, sp, #8
 8000cee:	3a02      	subs	r2, #2
 8000cf0:	a802      	add	r0, sp, #8
 8000cf2:	f853 3022 	ldr.w	r3, [r3, r2, lsl #2]
 8000cf6:	f850 0021 	ldr.w	r0, [r0, r1, lsl #2]
 8000cfa:	1a1b      	subs	r3, r3, r0
 8000cfc:	a802      	add	r0, sp, #8
 8000cfe:	3401      	adds	r4, #1
 8000d00:	f840 3022 	str.w	r3, [r0, r2, lsl #2]
 8000d04:	460a      	mov	r2, r1
 8000d06:	e74d      	b.n	8000ba4 <nanoc_interpreter_run+0x18>
 8000d08:	2a01      	cmp	r2, #1
 8000d0a:	f240 81b9 	bls.w	8001080 <nanoc_interpreter_run+0x4f4>
 8000d0e:	1e51      	subs	r1, r2, #1
 8000d10:	ab02      	add	r3, sp, #8
 8000d12:	3a02      	subs	r2, #2
 8000d14:	a802      	add	r0, sp, #8
 8000d16:	f853 3022 	ldr.w	r3, [r3, r2, lsl #2]
 8000d1a:	f850 0021 	ldr.w	r0, [r0, r1, lsl #2]
 8000d1e:	4403      	add	r3, r0
 8000d20:	a802      	add	r0, sp, #8
 8000d22:	3401      	adds	r4, #1
 8000d24:	f840 3022 	str.w	r3, [r0, r2, lsl #2]
 8000d28:	460a      	mov	r2, r1
 8000d2a:	e73b      	b.n	8000ba4 <nanoc_interpreter_run+0x18>
 8000d2c:	2a01      	cmp	r2, #1
 8000d2e:	f240 81a7 	bls.w	8001080 <nanoc_interpreter_run+0x4f4>
 8000d32:	1e51      	subs	r1, r2, #1
 8000d34:	ab02      	add	r3, sp, #8
 8000d36:	3a02      	subs	r2, #2
 8000d38:	a802      	add	r0, sp, #8
 8000d3a:	f853 3022 	ldr.w	r3, [r3, r2, lsl #2]
 8000d3e:	f850 0021 	ldr.w	r0, [r0, r1, lsl #2]
 8000d42:	4103      	asrs	r3, r0
 8000d44:	a802      	add	r0, sp, #8
 8000d46:	3401      	adds	r4, #1
 8000d48:	f840 3022 	str.w	r3, [r0, r2, lsl #2]
 8000d4c:	460a      	mov	r2, r1
 8000d4e:	e729      	b.n	8000ba4 <nanoc_interpreter_run+0x18>
 8000d50:	2a01      	cmp	r2, #1
 8000d52:	f240 8195 	bls.w	8001080 <nanoc_interpreter_run+0x4f4>
 8000d56:	1e51      	subs	r1, r2, #1
 8000d58:	ab02      	add	r3, sp, #8
 8000d5a:	3a02      	subs	r2, #2
 8000d5c:	a802      	add	r0, sp, #8
 8000d5e:	f853 3022 	ldr.w	r3, [r3, r2, lsl #2]
 8000d62:	f850 0021 	ldr.w	r0, [r0, r1, lsl #2]
 8000d66:	4083      	lsls	r3, r0
 8000d68:	a802      	add	r0, sp, #8
 8000d6a:	3401      	adds	r4, #1
 8000d6c:	f840 3022 	str.w	r3, [r0, r2, lsl #2]
 8000d70:	460a      	mov	r2, r1
 8000d72:	e717      	b.n	8000ba4 <nanoc_interpreter_run+0x18>
 8000d74:	2a01      	cmp	r2, #1
 8000d76:	f240 8183 	bls.w	8001080 <nanoc_interpreter_run+0x4f4>
 8000d7a:	1e51      	subs	r1, r2, #1
 8000d7c:	ab02      	add	r3, sp, #8
 8000d7e:	3a02      	subs	r2, #2
 8000d80:	a802      	add	r0, sp, #8
 8000d82:	f853 3022 	ldr.w	r3, [r3, r2, lsl #2]
 8000d86:	f850 0021 	ldr.w	r0, [r0, r1, lsl #2]
 8000d8a:	4283      	cmp	r3, r0
 8000d8c:	a802      	add	r0, sp, #8
 8000d8e:	bfb4      	ite	lt
 8000d90:	2300      	movlt	r3, #0
 8000d92:	2301      	movge	r3, #1
 8000d94:	f840 3022 	str.w	r3, [r0, r2, lsl #2]
 8000d98:	3401      	adds	r4, #1
 8000d9a:	460a      	mov	r2, r1
 8000d9c:	e702      	b.n	8000ba4 <nanoc_interpreter_run+0x18>
 8000d9e:	2a01      	cmp	r2, #1
 8000da0:	f240 816e 	bls.w	8001080 <nanoc_interpreter_run+0x4f4>
 8000da4:	1e51      	subs	r1, r2, #1
 8000da6:	ab02      	add	r3, sp, #8
 8000da8:	3a02      	subs	r2, #2
 8000daa:	a802      	add	r0, sp, #8
 8000dac:	f853 3022 	ldr.w	r3, [r3, r2, lsl #2]
 8000db0:	f850 0021 	ldr.w	r0, [r0, r1, lsl #2]
 8000db4:	4283      	cmp	r3, r0
 8000db6:	a802      	add	r0, sp, #8
 8000db8:	bfcc      	ite	gt
 8000dba:	2300      	movgt	r3, #0
 8000dbc:	2301      	movle	r3, #1
 8000dbe:	f840 3022 	str.w	r3, [r0, r2, lsl #2]
 8000dc2:	3401      	adds	r4, #1
 8000dc4:	460a      	mov	r2, r1
 8000dc6:	e6ed      	b.n	8000ba4 <nanoc_interpreter_run+0x18>
 8000dc8:	2a01      	cmp	r2, #1
 8000dca:	f240 8159 	bls.w	8001080 <nanoc_interpreter_run+0x4f4>
 8000dce:	1e51      	subs	r1, r2, #1
 8000dd0:	ab02      	add	r3, sp, #8
 8000dd2:	3a02      	subs	r2, #2
 8000dd4:	a802      	add	r0, sp, #8
 8000dd6:	f853 3022 	ldr.w	r3, [r3, r2, lsl #2]
 8000dda:	f850 0021 	ldr.w	r0, [r0, r1, lsl #2]
 8000dde:	4283      	cmp	r3, r0
 8000de0:	a802      	add	r0, sp, #8
 8000de2:	bfd4      	ite	le
 8000de4:	2300      	movle	r3, #0
 8000de6:	2301      	movgt	r3, #1
 8000de8:	f840 3022 	str.w	r3, [r0, r2, lsl #2]
 8000dec:	3401      	adds	r4, #1
 8000dee:	460a      	mov	r2, r1
 8000df0:	e6d8      	b.n	8000ba4 <nanoc_interpreter_run+0x18>
 8000df2:	2a01      	cmp	r2, #1
 8000df4:	f240 8144 	bls.w	8001080 <nanoc_interpreter_run+0x4f4>
 8000df8:	1e51      	subs	r1, r2, #1
 8000dfa:	ab02      	add	r3, sp, #8
 8000dfc:	3a02      	subs	r2, #2
 8000dfe:	a802      	add	r0, sp, #8
 8000e00:	f853 3022 	ldr.w	r3, [r3, r2, lsl #2]
 8000e04:	f850 0021 	ldr.w	r0, [r0, r1, lsl #2]
 8000e08:	4283      	cmp	r3, r0
 8000e0a:	a802      	add	r0, sp, #8
 8000e0c:	bfac      	ite	ge
 8000e0e:	2300      	movge	r3, #0
 8000e10:	2301      	movlt	r3, #1
 8000e12:	f840 3022 	str.w	r3, [r0, r2, lsl #2]
 8000e16:	3401      	adds	r4, #1
 8000e18:	460a      	mov	r2, r1
 8000e1a:	e6c3      	b.n	8000ba4 <nanoc_interpreter_run+0x18>
 8000e1c:	2a01      	cmp	r2, #1
 8000e1e:	f240 812f 	bls.w	8001080 <nanoc_interpreter_run+0x4f4>
 8000e22:	1e51      	subs	r1, r2, #1
 8000e24:	ab02      	add	r3, sp, #8
 8000e26:	3a02      	subs	r2, #2
 8000e28:	a802      	add	r0, sp, #8
 8000e2a:	f853 3022 	ldr.w	r3, [r3, r2, lsl #2]
 8000e2e:	f850 0021 	ldr.w	r0, [r0, r1, lsl #2]
 8000e32:	1a1b      	subs	r3, r3, r0
 8000e34:	a802      	add	r0, sp, #8
 8000e36:	bf18      	it	ne
 8000e38:	2301      	movne	r3, #1
 8000e3a:	f840 3022 	str.w	r3, [r0, r2, lsl #2]
 8000e3e:	3401      	adds	r4, #1
 8000e40:	460a      	mov	r2, r1
 8000e42:	e6af      	b.n	8000ba4 <nanoc_interpreter_run+0x18>
 8000e44:	2a01      	cmp	r2, #1
 8000e46:	f240 811b 	bls.w	8001080 <nanoc_interpreter_run+0x4f4>
 8000e4a:	1e51      	subs	r1, r2, #1
 8000e4c:	ab02      	add	r3, sp, #8
 8000e4e:	3a02      	subs	r2, #2
 8000e50:	a802      	add	r0, sp, #8
 8000e52:	f853 3022 	ldr.w	r3, [r3, r2, lsl #2]
 8000e56:	f850 0021 	ldr.w	r0, [r0, r1, lsl #2]
 8000e5a:	1a1b      	subs	r3, r3, r0
 8000e5c:	fab3 f383 	clz	r3, r3
 8000e60:	a802      	add	r0, sp, #8
 8000e62:	095b      	lsrs	r3, r3, #5
 8000e64:	f840 3022 	str.w	r3, [r0, r2, lsl #2]
 8000e68:	3401      	adds	r4, #1
 8000e6a:	460a      	mov	r2, r1
 8000e6c:	e69a      	b.n	8000ba4 <nanoc_interpreter_run+0x18>
 8000e6e:	2a01      	cmp	r2, #1
 8000e70:	f240 8106 	bls.w	8001080 <nanoc_interpreter_run+0x4f4>
 8000e74:	1e51      	subs	r1, r2, #1
 8000e76:	ab02      	add	r3, sp, #8
 8000e78:	3a02      	subs	r2, #2
 8000e7a:	a802      	add	r0, sp, #8
 8000e7c:	f853 3022 	ldr.w	r3, [r3, r2, lsl #2]
 8000e80:	f850 0021 	ldr.w	r0, [r0, r1, lsl #2]
 8000e84:	4003      	ands	r3, r0
 8000e86:	a802      	add	r0, sp, #8
 8000e88:	3401      	adds	r4, #1
 8000e8a:	f840 3022 	str.w	r3, [r0, r2, lsl #2]
 8000e8e:	460a      	mov	r2, r1
 8000e90:	e688      	b.n	8000ba4 <nanoc_interpreter_run+0x18>
 8000e92:	2a01      	cmp	r2, #1
 8000e94:	f240 80f4 	bls.w	8001080 <nanoc_interpreter_run+0x4f4>
 8000e98:	1e51      	subs	r1, r2, #1
 8000e9a:	ab02      	add	r3, sp, #8
 8000e9c:	3a02      	subs	r2, #2
 8000e9e:	a802      	add	r0, sp, #8
 8000ea0:	f853 3022 	ldr.w	r3, [r3, r2, lsl #2]
 8000ea4:	f850 0021 	ldr.w	r0, [r0, r1, lsl #2]
 8000ea8:	4043      	eors	r3, r0
 8000eaa:	a802      	add	r0, sp, #8
 8000eac:	3401      	adds	r4, #1
 8000eae:	f840 3022 	str.w	r3, [r0, r2, lsl #2]
 8000eb2:	460a      	mov	r2, r1
 8000eb4:	e676      	b.n	8000ba4 <nanoc_interpreter_run+0x18>
 8000eb6:	2a01      	cmp	r2, #1
 8000eb8:	f240 80e2 	bls.w	8001080 <nanoc_interpreter_run+0x4f4>
 8000ebc:	1e51      	subs	r1, r2, #1
 8000ebe:	ab02      	add	r3, sp, #8
 8000ec0:	3a02      	subs	r2, #2
 8000ec2:	a802      	add	r0, sp, #8
 8000ec4:	f853 3022 	ldr.w	r3, [r3, r2, lsl #2]
 8000ec8:	f850 0021 	ldr.w	r0, [r0, r1, lsl #2]
 8000ecc:	4303      	orrs	r3, r0
 8000ece:	a802      	add	r0, sp, #8
 8000ed0:	3401      	adds	r4, #1
 8000ed2:	f840 3022 	str.w	r3, [r0, r2, lsl #2]
 8000ed6:	460a      	mov	r2, r1
 8000ed8:	e664      	b.n	8000ba4 <nanoc_interpreter_run+0x18>
 8000eda:	192b      	adds	r3, r5, r4
 8000edc:	a822      	add	r0, sp, #136	; 0x88
 8000ede:	785b      	ldrb	r3, [r3, #1]
 8000ee0:	4433      	add	r3, r6
 8000ee2:	3402      	adds	r4, #2
 8000ee4:	f850 1023 	ldr.w	r1, [r0, r3, lsl #2]
 8000ee8:	3901      	subs	r1, #1
 8000eea:	f840 1023 	str.w	r1, [r0, r3, lsl #2]
 8000eee:	e659      	b.n	8000ba4 <nanoc_interpreter_run+0x18>
 8000ef0:	192b      	adds	r3, r5, r4
 8000ef2:	a822      	add	r0, sp, #136	; 0x88
 8000ef4:	785b      	ldrb	r3, [r3, #1]
 8000ef6:	4433      	add	r3, r6
 8000ef8:	3402      	adds	r4, #2
 8000efa:	f850 1023 	ldr.w	r1, [r0, r3, lsl #2]
 8000efe:	3101      	adds	r1, #1
 8000f00:	f840 1023 	str.w	r1, [r0, r3, lsl #2]
 8000f04:	e64e      	b.n	8000ba4 <nanoc_interpreter_run+0x18>
 8000f06:	2a00      	cmp	r2, #0
 8000f08:	f000 80ba 	beq.w	8001080 <nanoc_interpreter_run+0x4f4>
 8000f0c:	3a01      	subs	r2, #1
 8000f0e:	3401      	adds	r4, #1
 8000f10:	e648      	b.n	8000ba4 <nanoc_interpreter_run+0x18>
 8000f12:	2a00      	cmp	r2, #0
 8000f14:	f000 80b4 	beq.w	8001080 <nanoc_interpreter_run+0x4f4>
 8000f18:	1e53      	subs	r3, r2, #1
 8000f1a:	a902      	add	r1, sp, #8
 8000f1c:	3401      	adds	r4, #1
 8000f1e:	f851 3023 	ldr.w	r3, [r1, r3, lsl #2]
 8000f22:	f841 3022 	str.w	r3, [r1, r2, lsl #2]
 8000f26:	3201      	adds	r2, #1
 8000f28:	e63c      	b.n	8000ba4 <nanoc_interpreter_run+0x18>
 8000f2a:	192b      	adds	r3, r5, r4
 8000f2c:	3402      	adds	r4, #2
 8000f2e:	785b      	ldrb	r3, [r3, #1]
 8000f30:	449a      	add	sl, r3
 8000f32:	e637      	b.n	8000ba4 <nanoc_interpreter_run+0x18>
 8000f34:	ab22      	add	r3, sp, #136	; 0x88
 8000f36:	f1a6 0a02 	sub.w	sl, r6, #2
 8000f3a:	3e01      	subs	r6, #1
 8000f3c:	f853 402a 	ldr.w	r4, [r3, sl, lsl #2]
 8000f40:	f853 6026 	ldr.w	r6, [r3, r6, lsl #2]
 8000f44:	e62e      	b.n	8000ba4 <nanoc_interpreter_run+0x18>
 8000f46:	192b      	adds	r3, r5, r4
 8000f48:	3404      	adds	r4, #4
 8000f4a:	7859      	ldrb	r1, [r3, #1]
 8000f4c:	f9b3 7002 	ldrsh.w	r7, [r3, #2]
 8000f50:	428a      	cmp	r2, r1
 8000f52:	f0c0 8095 	bcc.w	8001080 <nanoc_interpreter_run+0x4f4>
 8000f56:	eba2 0901 	sub.w	r9, r2, r1
 8000f5a:	b1a9      	cbz	r1, 8000f88 <nanoc_interpreter_run+0x3fc>
 8000f5c:	f60d 0388 	addw	r3, sp, #2184	; 0x888
 8000f60:	f60d 0088 	addw	r0, sp, #2184	; 0x888
 8000f64:	eb03 0389 	add.w	r3, r3, r9, lsl #2
 8000f68:	eb00 008a 	add.w	r0, r0, sl, lsl #2
 8000f6c:	f10d 0c04 	add.w	ip, sp, #4
 8000f70:	f6a3 0384 	subw	r3, r3, #2180	; 0x884
 8000f74:	f5a0 60ff 	sub.w	r0, r0, #2040	; 0x7f8
 8000f78:	eb0c 0c82 	add.w	ip, ip, r2, lsl #2
 8000f7c:	f853 2f04 	ldr.w	r2, [r3, #4]!
 8000f80:	f840 2b04 	str.w	r2, [r0], #4
 8000f84:	459c      	cmp	ip, r3
 8000f86:	d1f9      	bne.n	8000f7c <nanoc_interpreter_run+0x3f0>
 8000f88:	4640      	mov	r0, r8
 8000f8a:	9101      	str	r1, [sp, #4]
 8000f8c:	f7ff fb76 	bl	800067c <shell_print>
 8000f90:	2f00      	cmp	r7, #0
 8000f92:	db7a      	blt.n	800108a <nanoc_interpreter_run+0x4fe>
 8000f94:	4850      	ldr	r0, [pc, #320]	; (80010d8 <nanoc_interpreter_run+0x54c>)
 8000f96:	f7ff fb71 	bl	800067c <shell_print>
 8000f9a:	ab22      	add	r3, sp, #136	; 0x88
 8000f9c:	f10a 0101 	add.w	r1, sl, #1
 8000fa0:	f843 402a 	str.w	r4, [r3, sl, lsl #2]
 8000fa4:	f10a 0a02 	add.w	sl, sl, #2
 8000fa8:	f843 6021 	str.w	r6, [r3, r1, lsl #2]
 8000fac:	464a      	mov	r2, r9
 8000fae:	463c      	mov	r4, r7
 8000fb0:	4656      	mov	r6, sl
 8000fb2:	e5f7      	b.n	8000ba4 <nanoc_interpreter_run+0x18>
 8000fb4:	2a00      	cmp	r2, #0
 8000fb6:	d063      	beq.n	8001080 <nanoc_interpreter_run+0x4f4>
 8000fb8:	1e53      	subs	r3, r2, #1
 8000fba:	a902      	add	r1, sp, #8
 8000fbc:	f851 1023 	ldr.w	r1, [r1, r3, lsl #2]
 8000fc0:	2900      	cmp	r1, #0
 8000fc2:	f43f ae24 	beq.w	8000c0e <nanoc_interpreter_run+0x82>
 8000fc6:	3403      	adds	r4, #3
 8000fc8:	461a      	mov	r2, r3
 8000fca:	e5eb      	b.n	8000ba4 <nanoc_interpreter_run+0x18>
 8000fcc:	2a00      	cmp	r2, #0
 8000fce:	d057      	beq.n	8001080 <nanoc_interpreter_run+0x4f4>
 8000fd0:	3a01      	subs	r2, #1
 8000fd2:	ab02      	add	r3, sp, #8
 8000fd4:	f853 3022 	ldr.w	r3, [r3, r2, lsl #2]
 8000fd8:	2b00      	cmp	r3, #0
 8000fda:	f47f ae18 	bne.w	8000c0e <nanoc_interpreter_run+0x82>
 8000fde:	3403      	adds	r4, #3
 8000fe0:	e5e0      	b.n	8000ba4 <nanoc_interpreter_run+0x18>
 8000fe2:	2a00      	cmp	r2, #0
 8000fe4:	d04c      	beq.n	8001080 <nanoc_interpreter_run+0x4f4>
 8000fe6:	3a01      	subs	r2, #1
 8000fe8:	ab02      	add	r3, sp, #8
 8000fea:	f853 3022 	ldr.w	r3, [r3, r2, lsl #2]
 8000fee:	2b00      	cmp	r3, #0
 8000ff0:	d1f5      	bne.n	8000fde <nanoc_interpreter_run+0x452>
 8000ff2:	442c      	add	r4, r5
 8000ff4:	f8b4 4001 	ldrh.w	r4, [r4, #1]
 8000ff8:	e5d4      	b.n	8000ba4 <nanoc_interpreter_run+0x18>
 8000ffa:	2a1f      	cmp	r2, #31
 8000ffc:	d866      	bhi.n	80010cc <nanoc_interpreter_run+0x540>
 8000ffe:	192b      	adds	r3, r5, r4
 8001000:	a902      	add	r1, sp, #8
 8001002:	f8b3 3001 	ldrh.w	r3, [r3, #1]
 8001006:	f841 3022 	str.w	r3, [r1, r2, lsl #2]
 800100a:	3403      	adds	r4, #3
 800100c:	3201      	adds	r2, #1
 800100e:	e5c9      	b.n	8000ba4 <nanoc_interpreter_run+0x18>
 8001010:	2a1f      	cmp	r2, #31
 8001012:	d85b      	bhi.n	80010cc <nanoc_interpreter_run+0x540>
 8001014:	192b      	adds	r3, r5, r4
 8001016:	a902      	add	r1, sp, #8
 8001018:	785b      	ldrb	r3, [r3, #1]
 800101a:	f841 3022 	str.w	r3, [r1, r2, lsl #2]
 800101e:	3402      	adds	r4, #2
 8001020:	3201      	adds	r2, #1
 8001022:	e5bf      	b.n	8000ba4 <nanoc_interpreter_run+0x18>
 8001024:	482d      	ldr	r0, [pc, #180]	; (80010dc <nanoc_interpreter_run+0x550>)
 8001026:	f7ff fb29 	bl	800067c <shell_print>
 800102a:	2000      	movs	r0, #0
 800102c:	f60d 0d8c 	addw	sp, sp, #2188	; 0x88c
 8001030:	e8bd 8ff0 	ldmia.w	sp!, {r4, r5, r6, r7, r8, r9, sl, fp, pc}
 8001034:	2a1f      	cmp	r2, #31
 8001036:	d849      	bhi.n	80010cc <nanoc_interpreter_run+0x540>
 8001038:	192b      	adds	r3, r5, r4
 800103a:	a922      	add	r1, sp, #136	; 0x88
 800103c:	785b      	ldrb	r3, [r3, #1]
 800103e:	4433      	add	r3, r6
 8001040:	3402      	adds	r4, #2
 8001042:	f851 3023 	ldr.w	r3, [r1, r3, lsl #2]
 8001046:	a902      	add	r1, sp, #8
 8001048:	f841 3022 	str.w	r3, [r1, r2, lsl #2]
 800104c:	3201      	adds	r2, #1
 800104e:	e5a9      	b.n	8000ba4 <nanoc_interpreter_run+0x18>
 8001050:	2a1f      	cmp	r2, #31
 8001052:	d83b      	bhi.n	80010cc <nanoc_interpreter_run+0x540>
 8001054:	192b      	adds	r3, r5, r4
 8001056:	a902      	add	r1, sp, #8
 8001058:	f8d3 3001 	ldr.w	r3, [r3, #1]
 800105c:	f841 3022 	str.w	r3, [r1, r2, lsl #2]
 8001060:	3405      	adds	r4, #5
 8001062:	3201      	adds	r2, #1
 8001064:	e59e      	b.n	8000ba4 <nanoc_interpreter_run+0x18>
 8001066:	b15a      	cbz	r2, 8001080 <nanoc_interpreter_run+0x4f4>
 8001068:	192b      	adds	r3, r5, r4
 800106a:	3a01      	subs	r2, #1
 800106c:	785b      	ldrb	r3, [r3, #1]
 800106e:	a902      	add	r1, sp, #8
 8001070:	4433      	add	r3, r6
 8001072:	a822      	add	r0, sp, #136	; 0x88
 8001074:	f851 1022 	ldr.w	r1, [r1, r2, lsl #2]
 8001078:	f840 1023 	str.w	r1, [r0, r3, lsl #2]
 800107c:	3402      	adds	r4, #2
 800107e:	e591      	b.n	8000ba4 <nanoc_interpreter_run+0x18>
 8001080:	2001      	movs	r0, #1
 8001082:	f60d 0d8c 	addw	sp, sp, #2188	; 0x88c
 8001086:	e8bd 8ff0 	ldmia.w	sp!, {r4, r5, r6, r7, r8, r9, sl, fp, pc}
 800108a:	4815      	ldr	r0, [pc, #84]	; (80010e0 <nanoc_interpreter_run+0x554>)
 800108c:	f7ff faf6 	bl	800067c <shell_print>
 8001090:	f1b9 0f1f 	cmp.w	r9, #31
 8001094:	d81a      	bhi.n	80010cc <nanoc_interpreter_run+0x540>
 8001096:	9901      	ldr	r1, [sp, #4]
 8001098:	f8db 3004 	ldr.w	r3, [fp, #4]
 800109c:	3701      	adds	r7, #1
 800109e:	f60d 0288 	addw	r2, sp, #2184	; 0x888
 80010a2:	ebc7 7787 	rsb	r7, r7, r7, lsl #30
 80010a6:	4608      	mov	r0, r1
 80010a8:	eb02 018a 	add.w	r1, r2, sl, lsl #2
 80010ac:	f853 3027 	ldr.w	r3, [r3, r7, lsl #2]
 80010b0:	f5a1 61ff 	sub.w	r1, r1, #2040	; 0x7f8
 80010b4:	4798      	blx	r3
 80010b6:	ab02      	add	r3, sp, #8
 80010b8:	f109 0201 	add.w	r2, r9, #1
 80010bc:	f843 0029 	str.w	r0, [r3, r9, lsl #2]
 80010c0:	4808      	ldr	r0, [pc, #32]	; (80010e4 <nanoc_interpreter_run+0x558>)
 80010c2:	9201      	str	r2, [sp, #4]
 80010c4:	f7ff fada 	bl	800067c <shell_print>
 80010c8:	9a01      	ldr	r2, [sp, #4]
 80010ca:	e56b      	b.n	8000ba4 <nanoc_interpreter_run+0x18>
 80010cc:	2002      	movs	r0, #2
 80010ce:	e7ad      	b.n	800102c <nanoc_interpreter_run+0x4a0>
 80010d0:	2003      	movs	r0, #3
 80010d2:	e7ab      	b.n	800102c <nanoc_interpreter_run+0x4a0>
 80010d4:	2004      	movs	r0, #4
 80010d6:	e7a9      	b.n	800102c <nanoc_interpreter_run+0x4a0>
 80010d8:	080037f8 	.word	0x080037f8
 80010dc:	080037c0 	.word	0x080037c0
 80010e0:	080037d8 	.word	0x080037d8
 80010e4:	080037e8 	.word	0x080037e8
 80010e8:	080037c8 	.word	0x080037c8

080010ec <nanoc_interpreter_status_message>:
 80010ec:	2804      	cmp	r0, #4
 80010ee:	b510      	push	{r4, lr}
 80010f0:	4604      	mov	r4, r0
 80010f2:	d803      	bhi.n	80010fc <nanoc_interpreter_status_message+0x10>
 80010f4:	4b04      	ldr	r3, [pc, #16]	; (8001108 <nanoc_interpreter_status_message+0x1c>)
 80010f6:	f853 0024 	ldr.w	r0, [r3, r4, lsl #2]
 80010fa:	bd10      	pop	{r4, pc}
 80010fc:	f001 fe26 	bl	8002d4c <panic>
 8001100:	4b01      	ldr	r3, [pc, #4]	; (8001108 <nanoc_interpreter_status_message+0x1c>)
 8001102:	f853 0024 	ldr.w	r0, [r3, r4, lsl #2]
 8001106:	bd10      	pop	{r4, pc}
 8001108:	080037ac 	.word	0x080037ac

0800110c <nanoc_memcpy>:
 800110c:	2000      	movs	r0, #0
 800110e:	4770      	bx	lr

08001110 <nanoc_memcmp>:
 8001110:	2000      	movs	r0, #0
 8001112:	4770      	bx	lr

08001114 <nanoc_memchr>:
 8001114:	2000      	movs	r0, #0
 8001116:	4770      	bx	lr

08001118 <nanoc_memset>:
 8001118:	2000      	movs	r0, #0
 800111a:	4770      	bx	lr

0800111c <nanoc_lexer_operator>:
 800111c:	e92d 41f0 	stmdb	sp!, {r4, r5, r6, r7, r8, lr}
 8001120:	6845      	ldr	r5, [r0, #4]
 8001122:	4c17      	ldr	r4, [pc, #92]	; (8001180 <nanoc_lexer_operator+0x64>)
 8001124:	f895 e000 	ldrb.w	lr, [r5]
 8001128:	f104 0c72 	add.w	ip, r4, #114	; 0x72
 800112c:	223c      	movs	r2, #60	; 0x3c
 800112e:	4596      	cmp	lr, r2
 8001130:	bf18      	it	ne
 8001132:	4623      	movne	r3, r4
 8001134:	d108      	bne.n	8001148 <nanoc_lexer_operator+0x2c>
 8001136:	462f      	mov	r7, r5
 8001138:	1c66      	adds	r6, r4, #1
 800113a:	4633      	mov	r3, r6
 800113c:	f817 8f01 	ldrb.w	r8, [r7, #1]!
 8001140:	f816 2b01 	ldrb.w	r2, [r6], #1
 8001144:	4590      	cmp	r8, r2
 8001146:	d0f8      	beq.n	800113a <nanoc_lexer_operator+0x1e>
 8001148:	0616      	lsls	r6, r2, #24
 800114a:	d415      	bmi.n	8001178 <nanoc_lexer_operator+0x5c>
 800114c:	f993 2000 	ldrsb.w	r2, [r3]
 8001150:	2a00      	cmp	r2, #0
 8001152:	db03      	blt.n	800115c <nanoc_lexer_operator+0x40>
 8001154:	f913 2f01 	ldrsb.w	r2, [r3, #1]!
 8001158:	2a00      	cmp	r2, #0
 800115a:	dafb      	bge.n	8001154 <nanoc_lexer_operator+0x38>
 800115c:	1c5c      	adds	r4, r3, #1
 800115e:	4564      	cmp	r4, ip
 8001160:	d201      	bcs.n	8001166 <nanoc_lexer_operator+0x4a>
 8001162:	785a      	ldrb	r2, [r3, #1]
 8001164:	e7e3      	b.n	800112e <nanoc_lexer_operator+0x12>
 8001166:	2201      	movs	r2, #1
 8001168:	4613      	mov	r3, r2
 800116a:	740a      	strb	r2, [r1, #16]
 800116c:	608b      	str	r3, [r1, #8]
 800116e:	18e9      	adds	r1, r5, r3
 8001170:	e8bd 41f0 	ldmia.w	sp!, {r4, r5, r6, r7, r8, lr}
 8001174:	f000 bd5a 	b.w	8001c2c <nanoc_lexer_forward>
 8001178:	1b1b      	subs	r3, r3, r4
 800117a:	f002 027f 	and.w	r2, r2, #127	; 0x7f
 800117e:	e7f4      	b.n	800116a <nanoc_lexer_operator+0x4e>
 8001180:	08003858 	.word	0x08003858

08001184 <nanoc_status_message>:
 8001184:	280f      	cmp	r0, #15
 8001186:	b510      	push	{r4, lr}
 8001188:	4604      	mov	r4, r0
 800118a:	d803      	bhi.n	8001194 <nanoc_status_message+0x10>
 800118c:	4b04      	ldr	r3, [pc, #16]	; (80011a0 <nanoc_status_message+0x1c>)
 800118e:	f853 0024 	ldr.w	r0, [r3, r4, lsl #2]
 8001192:	bd10      	pop	{r4, pc}
 8001194:	f001 fdda 	bl	8002d4c <panic>
 8001198:	4b01      	ldr	r3, [pc, #4]	; (80011a0 <nanoc_status_message+0x1c>)
 800119a:	f853 0024 	ldr.w	r0, [r3, r4, lsl #2]
 800119e:	bd10      	pop	{r4, pc}
 80011a0:	080038cc 	.word	0x080038cc

080011a4 <nanoc_expression>:
 80011a4:	e92d 4ff0 	stmdb	sp!, {r4, r5, r6, r7, r8, r9, sl, fp, lr}
 80011a8:	b087      	sub	sp, #28
 80011aa:	f890 31b0 	ldrb.w	r3, [r0, #432]	; 0x1b0
 80011ae:	f8d0 2188 	ldr.w	r2, [r0, #392]	; 0x188
 80011b2:	9203      	str	r2, [sp, #12]
 80011b4:	f500 7b90 	add.w	fp, r0, #288	; 0x120
 80011b8:	f06f 0201 	mvn.w	r2, #1
 80011bc:	9302      	str	r3, [sp, #8]
 80011be:	2a01      	cmp	r2, #1
 80011c0:	eb0b 0343 	add.w	r3, fp, r3, lsl #1
 80011c4:	4604      	mov	r4, r0
 80011c6:	f890 91b1 	ldrb.w	r9, [r0, #433]	; 0x1b1
 80011ca:	f8df 82f8 	ldr.w	r8, [pc, #760]	; 80014c4 <nanoc_expression+0x320>
 80011ce:	9300      	str	r3, [sp, #0]
 80011d0:	f500 76a0 	add.w	r6, r0, #320	; 0x140
 80011d4:	f500 77c2 	add.w	r7, r0, #388	; 0x184
 80011d8:	f04f 0500 	mov.w	r5, #0
 80011dc:	d970      	bls.n	80012c0 <nanoc_expression+0x11c>
 80011de:	2d16      	cmp	r5, #22
 80011e0:	f000 8097 	beq.w	8001312 <nanoc_expression+0x16e>
 80011e4:	2d44      	cmp	r5, #68	; 0x44
 80011e6:	d003      	beq.n	80011f0 <nanoc_expression+0x4c>
 80011e8:	3d42      	subs	r5, #66	; 0x42
 80011ea:	2d01      	cmp	r5, #1
 80011ec:	f200 80d0 	bhi.w	8001390 <nanoc_expression+0x1ec>
 80011f0:	2100      	movs	r1, #0
 80011f2:	4630      	mov	r0, r6
 80011f4:	f000 fd9a 	bl	8001d2c <nanoc_tokenstream_get>
 80011f8:	7c05      	ldrb	r5, [r0, #16]
 80011fa:	2d3e      	cmp	r5, #62	; 0x3e
 80011fc:	f000 8100 	beq.w	8001400 <nanoc_expression+0x25c>
 8001200:	2302      	movs	r3, #2
 8001202:	1eaa      	subs	r2, r5, #2
 8001204:	2a01      	cmp	r2, #1
 8001206:	eb03 0343 	add.w	r3, r3, r3, lsl #1
 800120a:	d867      	bhi.n	80012dc <nanoc_expression+0x138>
 800120c:	f818 1003 	ldrb.w	r1, [r8, r3]
 8001210:	2900      	cmp	r1, #0
 8001212:	f040 80f6 	bne.w	8001402 <nanoc_expression+0x25e>
 8001216:	2d03      	cmp	r5, #3
 8001218:	f000 808d 	beq.w	8001336 <nanoc_expression+0x192>
 800121c:	2d02      	cmp	r5, #2
 800121e:	f000 80c0 	beq.w	80013a2 <nanoc_expression+0x1fe>
 8001222:	2d16      	cmp	r5, #22
 8001224:	d061      	beq.n	80012ea <nanoc_expression+0x146>
 8001226:	f894 21b1 	ldrb.w	r2, [r4, #433]	; 0x1b1
 800122a:	f1a5 0130 	sub.w	r1, r5, #48	; 0x30
 800122e:	2914      	cmp	r1, #20
 8001230:	4613      	mov	r3, r2
 8001232:	f200 8101 	bhi.w	8001438 <nanoc_expression+0x294>
 8001236:	4441      	add	r1, r8
 8001238:	4599      	cmp	r9, r3
 800123a:	f891 a00c 	ldrb.w	sl, [r1, #12]
 800123e:	d31b      	bcc.n	8001278 <nanoc_expression+0xd4>
 8001240:	e029      	b.n	8001296 <nanoc_expression+0xf2>
 8001242:	eb08 030b 	add.w	r3, r8, fp
 8001246:	7b1b      	ldrb	r3, [r3, #12]
 8001248:	4553      	cmp	r3, sl
 800124a:	d824      	bhi.n	8001296 <nanoc_expression+0xf2>
 800124c:	f894 31b1 	ldrb.w	r3, [r4, #433]	; 0x1b1
 8001250:	3b01      	subs	r3, #1
 8001252:	b2db      	uxtb	r3, r3
 8001254:	18e2      	adds	r2, r4, r3
 8001256:	f884 31b1 	strb.w	r3, [r4, #433]	; 0x1b1
 800125a:	f892 b100 	ldrb.w	fp, [r2, #256]	; 0x100
 800125e:	f1ab 0330 	sub.w	r3, fp, #48	; 0x30
 8001262:	2b14      	cmp	r3, #20
 8001264:	d864      	bhi.n	8001330 <nanoc_expression+0x18c>
 8001266:	f1ab 0120 	sub.w	r1, fp, #32
 800126a:	4638      	mov	r0, r7
 800126c:	f000 f936 	bl	80014dc <nanoc_output_emit>
 8001270:	f894 31b1 	ldrb.w	r3, [r4, #433]	; 0x1b1
 8001274:	4599      	cmp	r9, r3
 8001276:	d20e      	bcs.n	8001296 <nanoc_expression+0xf2>
 8001278:	4423      	add	r3, r4
 800127a:	f893 30ff 	ldrb.w	r3, [r3, #255]	; 0xff
 800127e:	f1a3 0b30 	sub.w	fp, r3, #48	; 0x30
 8001282:	f1bb 0f14 	cmp.w	fp, #20
 8001286:	d9dc      	bls.n	8001242 <nanoc_expression+0x9e>
 8001288:	f001 fd60 	bl	8002d4c <panic>
 800128c:	eb08 030b 	add.w	r3, r8, fp
 8001290:	7b1b      	ldrb	r3, [r3, #12]
 8001292:	4553      	cmp	r3, sl
 8001294:	d9da      	bls.n	800124c <nanoc_expression+0xa8>
 8001296:	2d31      	cmp	r5, #49	; 0x31
 8001298:	f000 80b0 	beq.w	80013fc <nanoc_expression+0x258>
 800129c:	2d30      	cmp	r5, #48	; 0x30
 800129e:	d052      	beq.n	8001346 <nanoc_expression+0x1a2>
 80012a0:	f894 31b1 	ldrb.w	r3, [r4, #433]	; 0x1b1
 80012a4:	1eaa      	subs	r2, r5, #2
 80012a6:	18e1      	adds	r1, r4, r3
 80012a8:	3301      	adds	r3, #1
 80012aa:	f884 31b1 	strb.w	r3, [r4, #433]	; 0x1b1
 80012ae:	4630      	mov	r0, r6
 80012b0:	f881 5100 	strb.w	r5, [r1, #256]	; 0x100
 80012b4:	9201      	str	r2, [sp, #4]
 80012b6:	f000 fd4b 	bl	8001d50 <nanoc_tokenstream_next>
 80012ba:	9a01      	ldr	r2, [sp, #4]
 80012bc:	2a01      	cmp	r2, #1
 80012be:	d88e      	bhi.n	80011de <nanoc_expression+0x3a>
 80012c0:	2100      	movs	r1, #0
 80012c2:	4630      	mov	r0, r6
 80012c4:	f000 fd32 	bl	8001d2c <nanoc_tokenstream_get>
 80012c8:	7c05      	ldrb	r5, [r0, #16]
 80012ca:	2d3e      	cmp	r5, #62	; 0x3e
 80012cc:	f000 80a7 	beq.w	800141e <nanoc_expression+0x27a>
 80012d0:	1eaa      	subs	r2, r5, #2
 80012d2:	2300      	movs	r3, #0
 80012d4:	2a01      	cmp	r2, #1
 80012d6:	eb03 0343 	add.w	r3, r3, r3, lsl #1
 80012da:	d997      	bls.n	800120c <nanoc_expression+0x68>
 80012dc:	2d16      	cmp	r5, #22
 80012de:	d17c      	bne.n	80013da <nanoc_expression+0x236>
 80012e0:	f818 1003 	ldrb.w	r1, [r8, r3]
 80012e4:	2900      	cmp	r1, #0
 80012e6:	f040 808c 	bne.w	8001402 <nanoc_expression+0x25e>
 80012ea:	4630      	mov	r0, r6
 80012ec:	f000 fd30 	bl	8001d50 <nanoc_tokenstream_next>
 80012f0:	4620      	mov	r0, r4
 80012f2:	f7ff ff57 	bl	80011a4 <nanoc_expression>
 80012f6:	4601      	mov	r1, r0
 80012f8:	2800      	cmp	r0, #0
 80012fa:	f040 8082 	bne.w	8001402 <nanoc_expression+0x25e>
 80012fe:	4630      	mov	r0, r6
 8001300:	f000 fd14 	bl	8001d2c <nanoc_tokenstream_get>
 8001304:	7c03      	ldrb	r3, [r0, #16]
 8001306:	2b17      	cmp	r3, #23
 8001308:	f040 80d5 	bne.w	80014b6 <nanoc_expression+0x312>
 800130c:	4630      	mov	r0, r6
 800130e:	f000 fd1f 	bl	8001d50 <nanoc_tokenstream_next>
 8001312:	2100      	movs	r1, #0
 8001314:	4630      	mov	r0, r6
 8001316:	f000 fd09 	bl	8001d2c <nanoc_tokenstream_get>
 800131a:	7c05      	ldrb	r5, [r0, #16]
 800131c:	2d3e      	cmp	r5, #62	; 0x3e
 800131e:	f04f 0300 	mov.w	r3, #0
 8001322:	f47f af6e 	bne.w	8001202 <nanoc_expression+0x5e>
 8001326:	f1a5 0130 	sub.w	r1, r5, #48	; 0x30
 800132a:	f894 31b1 	ldrb.w	r3, [r4, #433]	; 0x1b1
 800132e:	e782      	b.n	8001236 <nanoc_expression+0x92>
 8001330:	f001 fd0c 	bl	8002d4c <panic>
 8001334:	e797      	b.n	8001266 <nanoc_expression+0xc2>
 8001336:	6941      	ldr	r1, [r0, #20]
 8001338:	4638      	mov	r0, r7
 800133a:	f000 f915 	bl	8001568 <nanoc_output_pushi>
 800133e:	4630      	mov	r0, r6
 8001340:	f000 fd06 	bl	8001d50 <nanoc_tokenstream_next>
 8001344:	e7bc      	b.n	80012c0 <nanoc_expression+0x11c>
 8001346:	f894 51b0 	ldrb.w	r5, [r4, #432]	; 0x1b0
 800134a:	9b02      	ldr	r3, [sp, #8]
 800134c:	42ab      	cmp	r3, r5
 800134e:	d20c      	bcs.n	800136a <nanoc_expression+0x1c6>
 8001350:	3590      	adds	r5, #144	; 0x90
 8001352:	eb04 0545 	add.w	r5, r4, r5, lsl #1
 8001356:	f835 1d02 	ldrh.w	r1, [r5, #-2]!
 800135a:	f8d4 2188 	ldr.w	r2, [r4, #392]	; 0x188
 800135e:	4638      	mov	r0, r7
 8001360:	f000 f8ee 	bl	8001540 <nanoc_output_emit16_at>
 8001364:	9b00      	ldr	r3, [sp, #0]
 8001366:	42ab      	cmp	r3, r5
 8001368:	d1f5      	bne.n	8001356 <nanoc_expression+0x1b2>
 800136a:	9b02      	ldr	r3, [sp, #8]
 800136c:	f884 31b0 	strb.w	r3, [r4, #432]	; 0x1b0
 8001370:	2109      	movs	r1, #9
 8001372:	4638      	mov	r0, r7
 8001374:	f000 f930 	bl	80015d8 <nanoc_output_unknown_jump>
 8001378:	f894 31b0 	ldrb.w	r3, [r4, #432]	; 0x1b0
 800137c:	f103 0290 	add.w	r2, r3, #144	; 0x90
 8001380:	3301      	adds	r3, #1
 8001382:	f884 31b0 	strb.w	r3, [r4, #432]	; 0x1b0
 8001386:	f824 0012 	strh.w	r0, [r4, r2, lsl #1]
 800138a:	4630      	mov	r0, r6
 800138c:	f000 fce0 	bl	8001d50 <nanoc_tokenstream_next>
 8001390:	2100      	movs	r1, #0
 8001392:	4630      	mov	r0, r6
 8001394:	f000 fcca 	bl	8001d2c <nanoc_tokenstream_get>
 8001398:	7c05      	ldrb	r5, [r0, #16]
 800139a:	2d3e      	cmp	r5, #62	; 0x3e
 800139c:	d039      	beq.n	8001412 <nanoc_expression+0x26e>
 800139e:	2301      	movs	r3, #1
 80013a0:	e72f      	b.n	8001202 <nanoc_expression+0x5e>
 80013a2:	4630      	mov	r0, r6
 80013a4:	f000 fcc2 	bl	8001d2c <nanoc_tokenstream_get>
 80013a8:	2101      	movs	r1, #1
 80013aa:	4605      	mov	r5, r0
 80013ac:	4630      	mov	r0, r6
 80013ae:	f000 fcbd 	bl	8001d2c <nanoc_tokenstream_get>
 80013b2:	7c03      	ldrb	r3, [r0, #16]
 80013b4:	2b16      	cmp	r3, #22
 80013b6:	d028      	beq.n	800140a <nanoc_expression+0x266>
 80013b8:	ab05      	add	r3, sp, #20
 80013ba:	68aa      	ldr	r2, [r5, #8]
 80013bc:	6829      	ldr	r1, [r5, #0]
 80013be:	f504 70d0 	add.w	r0, r4, #416	; 0x1a0
 80013c2:	f000 f92b 	bl	800161c <nanoc_map_find>
 80013c6:	b390      	cbz	r0, 800142e <nanoc_expression+0x28a>
 80013c8:	4638      	mov	r0, r7
 80013ca:	9a05      	ldr	r2, [sp, #20]
 80013cc:	2104      	movs	r1, #4
 80013ce:	f000 f88d 	bl	80014ec <nanoc_output_emit2>
 80013d2:	4630      	mov	r0, r6
 80013d4:	f000 fcbc 	bl	8001d50 <nanoc_tokenstream_next>
 80013d8:	e772      	b.n	80012c0 <nanoc_expression+0x11c>
 80013da:	2d44      	cmp	r5, #68	; 0x44
 80013dc:	4443      	add	r3, r8
 80013de:	d003      	beq.n	80013e8 <nanoc_expression+0x244>
 80013e0:	2d42      	cmp	r5, #66	; 0x42
 80013e2:	d001      	beq.n	80013e8 <nanoc_expression+0x244>
 80013e4:	2d43      	cmp	r5, #67	; 0x43
 80013e6:	d16b      	bne.n	80014c0 <nanoc_expression+0x31c>
 80013e8:	7899      	ldrb	r1, [r3, #2]
 80013ea:	b951      	cbnz	r1, 8001402 <nanoc_expression+0x25e>
 80013ec:	f894 31b1 	ldrb.w	r3, [r4, #433]	; 0x1b1
 80013f0:	4599      	cmp	r9, r3
 80013f2:	f04f 0a01 	mov.w	sl, #1
 80013f6:	f4ff af3f 	bcc.w	8001278 <nanoc_expression+0xd4>
 80013fa:	e754      	b.n	80012a6 <nanoc_expression+0x102>
 80013fc:	2108      	movs	r1, #8
 80013fe:	e7b8      	b.n	8001372 <nanoc_expression+0x1ce>
 8001400:	2101      	movs	r1, #1
 8001402:	4608      	mov	r0, r1
 8001404:	b007      	add	sp, #28
 8001406:	e8bd 8ff0 	ldmia.w	sp!, {r4, r5, r6, r7, r8, r9, sl, fp, pc}
 800140a:	4630      	mov	r0, r6
 800140c:	f000 fca0 	bl	8001d50 <nanoc_tokenstream_next>
 8001410:	e756      	b.n	80012c0 <nanoc_expression+0x11c>
 8001412:	2544      	movs	r5, #68	; 0x44
 8001414:	f1a5 0130 	sub.w	r1, r5, #48	; 0x30
 8001418:	f894 31b1 	ldrb.w	r3, [r4, #433]	; 0x1b1
 800141c:	e70b      	b.n	8001236 <nanoc_expression+0x92>
 800141e:	f894 31b1 	ldrb.w	r3, [r4, #433]	; 0x1b1
 8001422:	4599      	cmp	r9, r3
 8001424:	d249      	bcs.n	80014ba <nanoc_expression+0x316>
 8001426:	f04f 0a03 	mov.w	sl, #3
 800142a:	253e      	movs	r5, #62	; 0x3e
 800142c:	e724      	b.n	8001278 <nanoc_expression+0xd4>
 800142e:	210e      	movs	r1, #14
 8001430:	4608      	mov	r0, r1
 8001432:	b007      	add	sp, #28
 8001434:	e8bd 8ff0 	ldmia.w	sp!, {r4, r5, r6, r7, r8, r9, sl, fp, pc}
 8001438:	4591      	cmp	r9, r2
 800143a:	bf38      	it	cc
 800143c:	f504 75c2 	addcc.w	r5, r4, #388	; 0x184
 8001440:	d309      	bcc.n	8001456 <nanoc_expression+0x2b2>
 8001442:	e016      	b.n	8001472 <nanoc_expression+0x2ce>
 8001444:	f1a6 0120 	sub.w	r1, r6, #32
 8001448:	4628      	mov	r0, r5
 800144a:	f000 f847 	bl	80014dc <nanoc_output_emit>
 800144e:	f894 21b1 	ldrb.w	r2, [r4, #433]	; 0x1b1
 8001452:	4591      	cmp	r9, r2
 8001454:	d20d      	bcs.n	8001472 <nanoc_expression+0x2ce>
 8001456:	3a01      	subs	r2, #1
 8001458:	b2d2      	uxtb	r2, r2
 800145a:	18a3      	adds	r3, r4, r2
 800145c:	f884 21b1 	strb.w	r2, [r4, #433]	; 0x1b1
 8001460:	f893 6100 	ldrb.w	r6, [r3, #256]	; 0x100
 8001464:	f1a6 0330 	sub.w	r3, r6, #48	; 0x30
 8001468:	2b14      	cmp	r3, #20
 800146a:	d9eb      	bls.n	8001444 <nanoc_expression+0x2a0>
 800146c:	f001 fc6e 	bl	8002d4c <panic>
 8001470:	e7e8      	b.n	8001444 <nanoc_expression+0x2a0>
 8001472:	f894 51b0 	ldrb.w	r5, [r4, #432]	; 0x1b0
 8001476:	9b02      	ldr	r3, [sp, #8]
 8001478:	42ab      	cmp	r3, r5
 800147a:	d20e      	bcs.n	800149a <nanoc_expression+0x2f6>
 800147c:	3590      	adds	r5, #144	; 0x90
 800147e:	eb04 0545 	add.w	r5, r4, r5, lsl #1
 8001482:	f504 76c2 	add.w	r6, r4, #388	; 0x184
 8001486:	f835 1d02 	ldrh.w	r1, [r5, #-2]!
 800148a:	f8d4 2188 	ldr.w	r2, [r4, #392]	; 0x188
 800148e:	4630      	mov	r0, r6
 8001490:	f000 f856 	bl	8001540 <nanoc_output_emit16_at>
 8001494:	9b00      	ldr	r3, [sp, #0]
 8001496:	42ab      	cmp	r3, r5
 8001498:	d1f5      	bne.n	8001486 <nanoc_expression+0x2e2>
 800149a:	9b02      	ldr	r3, [sp, #8]
 800149c:	f8d4 1188 	ldr.w	r1, [r4, #392]	; 0x188
 80014a0:	f884 31b0 	strb.w	r3, [r4, #432]	; 0x1b0
 80014a4:	9b03      	ldr	r3, [sp, #12]
 80014a6:	1ac9      	subs	r1, r1, r3
 80014a8:	fab1 f181 	clz	r1, r1
 80014ac:	0949      	lsrs	r1, r1, #5
 80014ae:	4608      	mov	r0, r1
 80014b0:	b007      	add	sp, #28
 80014b2:	e8bd 8ff0 	ldmia.w	sp!, {r4, r5, r6, r7, r8, r9, sl, fp, pc}
 80014b6:	2104      	movs	r1, #4
 80014b8:	e7a3      	b.n	8001402 <nanoc_expression+0x25e>
 80014ba:	253e      	movs	r5, #62	; 0x3e
 80014bc:	223c      	movs	r2, #60	; 0x3c
 80014be:	e6f2      	b.n	80012a6 <nanoc_expression+0x102>
 80014c0:	7859      	ldrb	r1, [r3, #1]
 80014c2:	e6a5      	b.n	8001210 <nanoc_expression+0x6c>
 80014c4:	08003a3c 	.word	0x08003a3c

080014c8 <nanoc_output_init>:
 80014c8:	2300      	movs	r3, #0
 80014ca:	6001      	str	r1, [r0, #0]
 80014cc:	e9c0 3201 	strd	r3, r2, [r0, #4]
 80014d0:	4770      	bx	lr
 80014d2:	bf00      	nop

080014d4 <nanoc_output_skip>:
 80014d4:	6843      	ldr	r3, [r0, #4]
 80014d6:	4419      	add	r1, r3
 80014d8:	6041      	str	r1, [r0, #4]
 80014da:	4770      	bx	lr

080014dc <nanoc_output_emit>:
 80014dc:	e9d0 2300 	ldrd	r2, r3, [r0]
 80014e0:	54d1      	strb	r1, [r2, r3]
 80014e2:	6843      	ldr	r3, [r0, #4]
 80014e4:	3301      	adds	r3, #1
 80014e6:	6043      	str	r3, [r0, #4]
 80014e8:	4770      	bx	lr
 80014ea:	bf00      	nop

080014ec <nanoc_output_emit2>:
 80014ec:	b410      	push	{r4}
 80014ee:	e9d0 4300 	ldrd	r4, r3, [r0]
 80014f2:	54e1      	strb	r1, [r4, r3]
 80014f4:	e9d0 1300 	ldrd	r1, r3, [r0]
 80014f8:	3301      	adds	r3, #1
 80014fa:	6043      	str	r3, [r0, #4]
 80014fc:	54ca      	strb	r2, [r1, r3]
 80014fe:	6843      	ldr	r3, [r0, #4]
 8001500:	bc10      	pop	{r4}
 8001502:	3301      	adds	r3, #1
 8001504:	6043      	str	r3, [r0, #4]
 8001506:	4770      	bx	lr

08001508 <nanoc_output_emit16>:
 8001508:	e9d0 2300 	ldrd	r2, r3, [r0]
 800150c:	b410      	push	{r4}
 800150e:	18d4      	adds	r4, r2, r3
 8001510:	54d1      	strb	r1, [r2, r3]
 8001512:	0a09      	lsrs	r1, r1, #8
 8001514:	7061      	strb	r1, [r4, #1]
 8001516:	6843      	ldr	r3, [r0, #4]
 8001518:	bc10      	pop	{r4}
 800151a:	3302      	adds	r3, #2
 800151c:	6043      	str	r3, [r0, #4]
 800151e:	4770      	bx	lr

08001520 <nanoc_output_emit32>:
 8001520:	b410      	push	{r4}
 8001522:	e9d0 4200 	ldrd	r4, r2, [r0]
 8001526:	18a3      	adds	r3, r4, r2
 8001528:	54a1      	strb	r1, [r4, r2]
 800152a:	0a0c      	lsrs	r4, r1, #8
 800152c:	0c0a      	lsrs	r2, r1, #16
 800152e:	0e09      	lsrs	r1, r1, #24
 8001530:	705c      	strb	r4, [r3, #1]
 8001532:	709a      	strb	r2, [r3, #2]
 8001534:	70d9      	strb	r1, [r3, #3]
 8001536:	6843      	ldr	r3, [r0, #4]
 8001538:	bc10      	pop	{r4}
 800153a:	3304      	adds	r3, #4
 800153c:	6043      	str	r3, [r0, #4]
 800153e:	4770      	bx	lr

08001540 <nanoc_output_emit16_at>:
 8001540:	6803      	ldr	r3, [r0, #0]
 8001542:	1858      	adds	r0, r3, r1
 8001544:	b410      	push	{r4}
 8001546:	0a14      	lsrs	r4, r2, #8
 8001548:	545a      	strb	r2, [r3, r1]
 800154a:	7044      	strb	r4, [r0, #1]
 800154c:	bc10      	pop	{r4}
 800154e:	4770      	bx	lr

08001550 <nanoc_output_emit32_at>:
 8001550:	b430      	push	{r4, r5}
 8001552:	6800      	ldr	r0, [r0, #0]
 8001554:	1843      	adds	r3, r0, r1
 8001556:	5442      	strb	r2, [r0, r1]
 8001558:	0a15      	lsrs	r5, r2, #8
 800155a:	0c14      	lsrs	r4, r2, #16
 800155c:	0e12      	lsrs	r2, r2, #24
 800155e:	705d      	strb	r5, [r3, #1]
 8001560:	709c      	strb	r4, [r3, #2]
 8001562:	70da      	strb	r2, [r3, #3]
 8001564:	bc30      	pop	{r4, r5}
 8001566:	4770      	bx	lr

08001568 <nanoc_output_pushi>:
 8001568:	29ff      	cmp	r1, #255	; 0xff
 800156a:	b470      	push	{r4, r5, r6}
 800156c:	b2ca      	uxtb	r2, r1
 800156e:	e9d0 4300 	ldrd	r4, r3, [r0]
 8001572:	d80b      	bhi.n	800158c <nanoc_output_pushi+0x24>
 8001574:	2101      	movs	r1, #1
 8001576:	54e1      	strb	r1, [r4, r3]
 8001578:	e9d0 1300 	ldrd	r1, r3, [r0]
 800157c:	3301      	adds	r3, #1
 800157e:	6043      	str	r3, [r0, #4]
 8001580:	54ca      	strb	r2, [r1, r3]
 8001582:	6843      	ldr	r3, [r0, #4]
 8001584:	3301      	adds	r3, #1
 8001586:	6043      	str	r3, [r0, #4]
 8001588:	bc70      	pop	{r4, r5, r6}
 800158a:	4770      	bx	lr
 800158c:	f5b1 3f80 	cmp.w	r1, #65536	; 0x10000
 8001590:	f3c1 2507 	ubfx	r5, r1, #8, #8
 8001594:	d20d      	bcs.n	80015b2 <nanoc_output_pushi+0x4a>
 8001596:	2102      	movs	r1, #2
 8001598:	54e1      	strb	r1, [r4, r3]
 800159a:	e9d0 1300 	ldrd	r1, r3, [r0]
 800159e:	3301      	adds	r3, #1
 80015a0:	18cc      	adds	r4, r1, r3
 80015a2:	6043      	str	r3, [r0, #4]
 80015a4:	54ca      	strb	r2, [r1, r3]
 80015a6:	7065      	strb	r5, [r4, #1]
 80015a8:	6843      	ldr	r3, [r0, #4]
 80015aa:	3302      	adds	r3, #2
 80015ac:	6043      	str	r3, [r0, #4]
 80015ae:	bc70      	pop	{r4, r5, r6}
 80015b0:	4770      	bx	lr
 80015b2:	2603      	movs	r6, #3
 80015b4:	54e6      	strb	r6, [r4, r3]
 80015b6:	e9d0 6300 	ldrd	r6, r3, [r0]
 80015ba:	3301      	adds	r3, #1
 80015bc:	18f4      	adds	r4, r6, r3
 80015be:	6043      	str	r3, [r0, #4]
 80015c0:	54f2      	strb	r2, [r6, r3]
 80015c2:	0c0b      	lsrs	r3, r1, #16
 80015c4:	0e09      	lsrs	r1, r1, #24
 80015c6:	7065      	strb	r5, [r4, #1]
 80015c8:	70a3      	strb	r3, [r4, #2]
 80015ca:	70e1      	strb	r1, [r4, #3]
 80015cc:	6843      	ldr	r3, [r0, #4]
 80015ce:	3304      	adds	r3, #4
 80015d0:	6043      	str	r3, [r0, #4]
 80015d2:	bc70      	pop	{r4, r5, r6}
 80015d4:	4770      	bx	lr
 80015d6:	bf00      	nop

080015d8 <nanoc_output_unknown_jump>:
 80015d8:	e9d0 2300 	ldrd	r2, r3, [r0]
 80015dc:	54d1      	strb	r1, [r2, r3]
 80015de:	6843      	ldr	r3, [r0, #4]
 80015e0:	1cda      	adds	r2, r3, #3
 80015e2:	6042      	str	r2, [r0, #4]
 80015e4:	1c58      	adds	r0, r3, #1
 80015e6:	4770      	bx	lr

080015e8 <nanoc_output_jump>:
 80015e8:	b410      	push	{r4}
 80015ea:	e9d0 4300 	ldrd	r4, r3, [r0]
 80015ee:	54e1      	strb	r1, [r4, r3]
 80015f0:	e9d0 1300 	ldrd	r1, r3, [r0]
 80015f4:	3301      	adds	r3, #1
 80015f6:	18cc      	adds	r4, r1, r3
 80015f8:	6043      	str	r3, [r0, #4]
 80015fa:	54ca      	strb	r2, [r1, r3]
 80015fc:	0a12      	lsrs	r2, r2, #8
 80015fe:	7062      	strb	r2, [r4, #1]
 8001600:	6843      	ldr	r3, [r0, #4]
 8001602:	bc10      	pop	{r4}
 8001604:	3302      	adds	r3, #2
 8001606:	6043      	str	r3, [r0, #4]
 8001608:	4770      	bx	lr
 800160a:	bf00      	nop

0800160c <nanoc_output_jump_here>:
 800160c:	e9d0 3200 	ldrd	r3, r2, [r0]
 8001610:	545a      	strb	r2, [r3, r1]
 8001612:	440b      	add	r3, r1
 8001614:	0a12      	lsrs	r2, r2, #8
 8001616:	705a      	strb	r2, [r3, #1]
 8001618:	4770      	bx	lr
 800161a:	bf00      	nop

0800161c <nanoc_map_find>:
 800161c:	e92d 47f0 	stmdb	sp!, {r4, r5, r6, r7, r8, r9, sl, lr}
 8001620:	4688      	mov	r8, r1
 8001622:	6841      	ldr	r1, [r0, #4]
 8001624:	b1c1      	cbz	r1, 8001658 <nanoc_map_find+0x3c>
 8001626:	4699      	mov	r9, r3
 8001628:	4692      	mov	sl, r2
 800162a:	4607      	mov	r7, r0
 800162c:	2400      	movs	r4, #0
 800162e:	e002      	b.n	8001636 <nanoc_map_find+0x1a>
 8001630:	3401      	adds	r4, #1
 8001632:	42a1      	cmp	r1, r4
 8001634:	d910      	bls.n	8001658 <nanoc_map_find+0x3c>
 8001636:	683d      	ldr	r5, [r7, #0]
 8001638:	eb05 06c4 	add.w	r6, r5, r4, lsl #3
 800163c:	6876      	ldr	r6, [r6, #4]
 800163e:	45b2      	cmp	sl, r6
 8001640:	d1f6      	bne.n	8001630 <nanoc_map_find+0x14>
 8001642:	f855 0034 	ldr.w	r0, [r5, r4, lsl #3]
 8001646:	4652      	mov	r2, sl
 8001648:	4641      	mov	r1, r8
 800164a:	f001 fbed 	bl	8002e28 <strncmp>
 800164e:	b130      	cbz	r0, 800165e <nanoc_map_find+0x42>
 8001650:	6879      	ldr	r1, [r7, #4]
 8001652:	3401      	adds	r4, #1
 8001654:	42a1      	cmp	r1, r4
 8001656:	d8ee      	bhi.n	8001636 <nanoc_map_find+0x1a>
 8001658:	2000      	movs	r0, #0
 800165a:	e8bd 87f0 	ldmia.w	sp!, {r4, r5, r6, r7, r8, r9, sl, pc}
 800165e:	f8c9 4000 	str.w	r4, [r9]
 8001662:	2001      	movs	r0, #1
 8001664:	e8bd 87f0 	ldmia.w	sp!, {r4, r5, r6, r7, r8, r9, sl, pc}

08001668 <nanoc_map_insert>:
 8001668:	b5f8      	push	{r3, r4, r5, r6, r7, lr}
 800166a:	6845      	ldr	r5, [r0, #4]
 800166c:	46ac      	mov	ip, r5
 800166e:	6885      	ldr	r5, [r0, #8]
 8001670:	45ac      	cmp	ip, r5
 8001672:	d212      	bcs.n	800169a <nanoc_map_insert+0x32>
 8001674:	4604      	mov	r4, r0
 8001676:	4616      	mov	r6, r2
 8001678:	461f      	mov	r7, r3
 800167a:	460d      	mov	r5, r1
 800167c:	f7ff ffce 	bl	800161c <nanoc_map_find>
 8001680:	b968      	cbnz	r0, 800169e <nanoc_map_insert+0x36>
 8001682:	e9d4 3200 	ldrd	r3, r2, [r4]
 8001686:	eb03 01c2 	add.w	r1, r3, r2, lsl #3
 800168a:	f843 5032 	str.w	r5, [r3, r2, lsl #3]
 800168e:	604e      	str	r6, [r1, #4]
 8001690:	6863      	ldr	r3, [r4, #4]
 8001692:	1c5a      	adds	r2, r3, #1
 8001694:	6062      	str	r2, [r4, #4]
 8001696:	603b      	str	r3, [r7, #0]
 8001698:	bdf8      	pop	{r3, r4, r5, r6, r7, pc}
 800169a:	200b      	movs	r0, #11
 800169c:	bdf8      	pop	{r3, r4, r5, r6, r7, pc}
 800169e:	200c      	movs	r0, #12
 80016a0:	bdf8      	pop	{r3, r4, r5, r6, r7, pc}
 80016a2:	bf00      	nop

080016a4 <nanoc_map_init>:
 80016a4:	2300      	movs	r3, #0
 80016a6:	6001      	str	r1, [r0, #0]
 80016a8:	e9c0 3201 	strd	r3, r2, [r0, #4]
 80016ac:	4770      	bx	lr
 80016ae:	bf00      	nop

080016b0 <nanoc_parser_inc_dec>:
 80016b0:	b570      	push	{r4, r5, r6, lr}
 80016b2:	f500 74a0 	add.w	r4, r0, #320	; 0x140
 80016b6:	4605      	mov	r5, r0
 80016b8:	4620      	mov	r0, r4
 80016ba:	460e      	mov	r6, r1
 80016bc:	f000 fb48 	bl	8001d50 <nanoc_tokenstream_next>
 80016c0:	2100      	movs	r1, #0
 80016c2:	4620      	mov	r0, r4
 80016c4:	f000 fb32 	bl	8001d2c <nanoc_tokenstream_get>
 80016c8:	4601      	mov	r1, r0
 80016ca:	4633      	mov	r3, r6
 80016cc:	688a      	ldr	r2, [r1, #8]
 80016ce:	6809      	ldr	r1, [r1, #0]
 80016d0:	f505 70d0 	add.w	r0, r5, #416	; 0x1a0
 80016d4:	f7ff ffa2 	bl	800161c <nanoc_map_find>
 80016d8:	b160      	cbz	r0, 80016f4 <nanoc_parser_inc_dec+0x44>
 80016da:	4620      	mov	r0, r4
 80016dc:	f000 fb38 	bl	8001d50 <nanoc_tokenstream_next>
 80016e0:	4620      	mov	r0, r4
 80016e2:	2100      	movs	r1, #0
 80016e4:	f000 fb22 	bl	8001d2c <nanoc_tokenstream_get>
 80016e8:	7c03      	ldrb	r3, [r0, #16]
 80016ea:	2b1f      	cmp	r3, #31
 80016ec:	bf0c      	ite	eq
 80016ee:	2000      	moveq	r0, #0
 80016f0:	2002      	movne	r0, #2
 80016f2:	bd70      	pop	{r4, r5, r6, pc}
 80016f4:	200e      	movs	r0, #14
 80016f6:	bd70      	pop	{r4, r5, r6, pc}

080016f8 <nanoc_let.isra.2>:
 80016f8:	b5f0      	push	{r4, r5, r6, r7, lr}
 80016fa:	4606      	mov	r6, r0
 80016fc:	b083      	sub	sp, #12
 80016fe:	f500 74a0 	add.w	r4, r0, #320	; 0x140
 8001702:	f500 75d0 	add.w	r5, r0, #416	; 0x1a0
 8001706:	e006      	b.n	8001716 <nanoc_let.isra.2+0x1e>
 8001708:	2100      	movs	r1, #0
 800170a:	4620      	mov	r0, r4
 800170c:	f000 fb0e 	bl	8001d2c <nanoc_tokenstream_get>
 8001710:	7c00      	ldrb	r0, [r0, #16]
 8001712:	281d      	cmp	r0, #29
 8001714:	d129      	bne.n	800176a <nanoc_let.isra.2+0x72>
 8001716:	4620      	mov	r0, r4
 8001718:	f000 fb1a 	bl	8001d50 <nanoc_tokenstream_next>
 800171c:	2100      	movs	r1, #0
 800171e:	4620      	mov	r0, r4
 8001720:	f000 fb04 	bl	8001d2c <nanoc_tokenstream_get>
 8001724:	7c02      	ldrb	r2, [r0, #16]
 8001726:	2a02      	cmp	r2, #2
 8001728:	4601      	mov	r1, r0
 800172a:	ab01      	add	r3, sp, #4
 800172c:	4628      	mov	r0, r5
 800172e:	d103      	bne.n	8001738 <nanoc_let.isra.2+0x40>
 8001730:	688a      	ldr	r2, [r1, #8]
 8001732:	6809      	ldr	r1, [r1, #0]
 8001734:	f7ff ff98 	bl	8001668 <nanoc_map_insert>
 8001738:	4620      	mov	r0, r4
 800173a:	f000 fb09 	bl	8001d50 <nanoc_tokenstream_next>
 800173e:	2100      	movs	r1, #0
 8001740:	4620      	mov	r0, r4
 8001742:	f000 faf3 	bl	8001d2c <nanoc_tokenstream_get>
 8001746:	7c03      	ldrb	r3, [r0, #16]
 8001748:	2b21      	cmp	r3, #33	; 0x21
 800174a:	d1dd      	bne.n	8001708 <nanoc_let.isra.2+0x10>
 800174c:	4620      	mov	r0, r4
 800174e:	9f01      	ldr	r7, [sp, #4]
 8001750:	f000 fafe 	bl	8001d50 <nanoc_tokenstream_next>
 8001754:	4630      	mov	r0, r6
 8001756:	f7ff fd25 	bl	80011a4 <nanoc_expression>
 800175a:	463a      	mov	r2, r7
 800175c:	2105      	movs	r1, #5
 800175e:	b938      	cbnz	r0, 8001770 <nanoc_let.isra.2+0x78>
 8001760:	f506 70c2 	add.w	r0, r6, #388	; 0x184
 8001764:	f7ff fec2 	bl	80014ec <nanoc_output_emit2>
 8001768:	e7ce      	b.n	8001708 <nanoc_let.isra.2+0x10>
 800176a:	381f      	subs	r0, #31
 800176c:	bf18      	it	ne
 800176e:	2001      	movne	r0, #1
 8001770:	b003      	add	sp, #12
 8001772:	bdf0      	pop	{r4, r5, r6, r7, pc}

08001774 <nanoc_parser_init>:
 8001774:	b570      	push	{r4, r5, r6, lr}
 8001776:	4604      	mov	r4, r0
 8001778:	461e      	mov	r6, r3
 800177a:	4615      	mov	r5, r2
 800177c:	f500 70a0 	add.w	r0, r0, #320	; 0x140
 8001780:	f000 fac2 	bl	8001d08 <nanoc_tokenstream_init>
 8001784:	4632      	mov	r2, r6
 8001786:	4629      	mov	r1, r5
 8001788:	f504 70c2 	add.w	r0, r4, #388	; 0x184
 800178c:	f7ff fe9c 	bl	80014c8 <nanoc_output_init>
 8001790:	4621      	mov	r1, r4
 8001792:	f504 70d0 	add.w	r0, r4, #416	; 0x1a0
 8001796:	2220      	movs	r2, #32
 8001798:	f7ff ff84 	bl	80016a4 <nanoc_map_init>
 800179c:	2300      	movs	r3, #0
 800179e:	f8a4 31ae 	strh.w	r3, [r4, #430]	; 0x1ae
 80017a2:	f8a4 31b0 	strh.w	r3, [r4, #432]	; 0x1b0
 80017a6:	f884 3190 	strb.w	r3, [r4, #400]	; 0x190
 80017aa:	f884 3198 	strb.w	r3, [r4, #408]	; 0x198
 80017ae:	bd70      	pop	{r4, r5, r6, pc}

080017b0 <nanoc_fn_call>:
 80017b0:	b570      	push	{r4, r5, r6, lr}
 80017b2:	f500 75a0 	add.w	r5, r0, #320	; 0x140
 80017b6:	4606      	mov	r6, r0
 80017b8:	4628      	mov	r0, r5
 80017ba:	f000 fac9 	bl	8001d50 <nanoc_tokenstream_next>
 80017be:	4628      	mov	r0, r5
 80017c0:	f000 fac6 	bl	8001d50 <nanoc_tokenstream_next>
 80017c4:	4628      	mov	r0, r5
 80017c6:	2100      	movs	r1, #0
 80017c8:	f000 fab0 	bl	8001d2c <nanoc_tokenstream_get>
 80017cc:	7c03      	ldrb	r3, [r0, #16]
 80017ce:	2b17      	cmp	r3, #23
 80017d0:	f04f 0400 	mov.w	r4, #0
 80017d4:	d10a      	bne.n	80017ec <nanoc_fn_call+0x3c>
 80017d6:	e014      	b.n	8001802 <nanoc_fn_call+0x52>
 80017d8:	f000 faa8 	bl	8001d2c <nanoc_tokenstream_get>
 80017dc:	7c03      	ldrb	r3, [r0, #16]
 80017de:	2b17      	cmp	r3, #23
 80017e0:	4628      	mov	r0, r5
 80017e2:	d00e      	beq.n	8001802 <nanoc_fn_call+0x52>
 80017e4:	2b1d      	cmp	r3, #29
 80017e6:	d11a      	bne.n	800181e <nanoc_fn_call+0x6e>
 80017e8:	f000 fab2 	bl	8001d50 <nanoc_tokenstream_next>
 80017ec:	4630      	mov	r0, r6
 80017ee:	f7ff fcd9 	bl	80011a4 <nanoc_expression>
 80017f2:	3401      	adds	r4, #1
 80017f4:	4601      	mov	r1, r0
 80017f6:	b918      	cbnz	r0, 8001800 <nanoc_fn_call+0x50>
 80017f8:	2c10      	cmp	r4, #16
 80017fa:	4628      	mov	r0, r5
 80017fc:	d1ec      	bne.n	80017d8 <nanoc_fn_call+0x28>
 80017fe:	200f      	movs	r0, #15
 8001800:	bd70      	pop	{r4, r5, r6, pc}
 8001802:	f506 76c2 	add.w	r6, r6, #388	; 0x184
 8001806:	4622      	mov	r2, r4
 8001808:	4630      	mov	r0, r6
 800180a:	210b      	movs	r1, #11
 800180c:	f7ff fe6e 	bl	80014ec <nanoc_output_emit2>
 8001810:	4630      	mov	r0, r6
 8001812:	f04f 31ff 	mov.w	r1, #4294967295	; 0xffffffff
 8001816:	f7ff fe77 	bl	8001508 <nanoc_output_emit16>
 800181a:	2000      	movs	r0, #0
 800181c:	bd70      	pop	{r4, r5, r6, pc}
 800181e:	2001      	movs	r0, #1
 8001820:	bd70      	pop	{r4, r5, r6, pc}
 8001822:	bf00      	nop

08001824 <nanoc_statement>:
 8001824:	e92d 41f0 	stmdb	sp!, {r4, r5, r6, r7, r8, lr}
 8001828:	f500 75a0 	add.w	r5, r0, #320	; 0x140
 800182c:	b082      	sub	sp, #8
 800182e:	4604      	mov	r4, r0
 8001830:	2100      	movs	r1, #0
 8001832:	4628      	mov	r0, r5
 8001834:	f000 fa7a 	bl	8001d2c <nanoc_tokenstream_get>
 8001838:	7c03      	ldrb	r3, [r0, #16]
 800183a:	3b02      	subs	r3, #2
 800183c:	2b2c      	cmp	r3, #44	; 0x2c
 800183e:	d843      	bhi.n	80018c8 <nanoc_statement+0xa4>
 8001840:	e8df f003 	tbb	[pc, r3]
 8001844:	42424232 	.word	0x42424232
 8001848:	4e494244 	.word	0x4e494244
 800184c:	42175342 	.word	0x42175342
 8001850:	17706b66 	.word	0x17706b66
 8001854:	42424242 	.word	0x42424242
 8001858:	42424242 	.word	0x42424242
 800185c:	4242421f 	.word	0x4242421f
 8001860:	42424242 	.word	0x42424242
 8001864:	42424242 	.word	0x42424242
 8001868:	42424242 	.word	0x42424242
 800186c:	24424242 	.word	0x24424242
 8001870:	58          	.byte	0x58
 8001871:	00          	.byte	0x00
 8001872:	4620      	mov	r0, r4
 8001874:	f7ff ff40 	bl	80016f8 <nanoc_let.isra.2>
 8001878:	4606      	mov	r6, r0
 800187a:	4630      	mov	r0, r6
 800187c:	b002      	add	sp, #8
 800187e:	e8bd 81f0 	ldmia.w	sp!, {r4, r5, r6, r7, r8, pc}
 8001882:	4620      	mov	r0, r4
 8001884:	f000 f8c8 	bl	8001a18 <nanoc_block_inner>
 8001888:	4606      	mov	r6, r0
 800188a:	e7f6      	b.n	800187a <nanoc_statement+0x56>
 800188c:	a901      	add	r1, sp, #4
 800188e:	4620      	mov	r0, r4
 8001890:	f7ff ff0e 	bl	80016b0 <nanoc_parser_inc_dec>
 8001894:	4606      	mov	r6, r0
 8001896:	2800      	cmp	r0, #0
 8001898:	d1ef      	bne.n	800187a <nanoc_statement+0x56>
 800189a:	f504 70c2 	add.w	r0, r4, #388	; 0x184
 800189e:	9a01      	ldr	r2, [sp, #4]
 80018a0:	2110      	movs	r1, #16
 80018a2:	f7ff fe23 	bl	80014ec <nanoc_output_emit2>
 80018a6:	e7e8      	b.n	800187a <nanoc_statement+0x56>
 80018a8:	2100      	movs	r1, #0
 80018aa:	4628      	mov	r0, r5
 80018ac:	f000 fa3e 	bl	8001d2c <nanoc_tokenstream_get>
 80018b0:	2101      	movs	r1, #1
 80018b2:	4607      	mov	r7, r0
 80018b4:	4628      	mov	r0, r5
 80018b6:	f000 fa39 	bl	8001d2c <nanoc_tokenstream_get>
 80018ba:	7c03      	ldrb	r3, [r0, #16]
 80018bc:	2b16      	cmp	r3, #22
 80018be:	d062      	beq.n	8001986 <nanoc_statement+0x162>
 80018c0:	f1a3 0621 	sub.w	r6, r3, #33	; 0x21
 80018c4:	2e0b      	cmp	r6, #11
 80018c6:	d954      	bls.n	8001972 <nanoc_statement+0x14e>
 80018c8:	2601      	movs	r6, #1
 80018ca:	e7d6      	b.n	800187a <nanoc_statement+0x56>
 80018cc:	4620      	mov	r0, r4
 80018ce:	f7fe ff3f 	bl	8000750 <nanoc_if>
 80018d2:	4606      	mov	r6, r0
 80018d4:	e7d1      	b.n	800187a <nanoc_statement+0x56>
 80018d6:	4620      	mov	r0, r4
 80018d8:	f7ff f864 	bl	80009a4 <nanoc_do_while>
 80018dc:	4606      	mov	r6, r0
 80018de:	e7cc      	b.n	800187a <nanoc_statement+0x56>
 80018e0:	4620      	mov	r0, r4
 80018e2:	f7ff f80f 	bl	8000904 <nanoc_while>
 80018e6:	4606      	mov	r6, r0
 80018e8:	e7c7      	b.n	800187a <nanoc_statement+0x56>
 80018ea:	4620      	mov	r0, r4
 80018ec:	f7fe ffe8 	bl	80008c0 <nanoc_loop>
 80018f0:	4606      	mov	r6, r0
 80018f2:	e7c2      	b.n	800187a <nanoc_statement+0x56>
 80018f4:	a901      	add	r1, sp, #4
 80018f6:	4620      	mov	r0, r4
 80018f8:	f7ff feda 	bl	80016b0 <nanoc_parser_inc_dec>
 80018fc:	4606      	mov	r6, r0
 80018fe:	2800      	cmp	r0, #0
 8001900:	d1bb      	bne.n	800187a <nanoc_statement+0x56>
 8001902:	f504 70c2 	add.w	r0, r4, #388	; 0x184
 8001906:	9a01      	ldr	r2, [sp, #4]
 8001908:	2111      	movs	r1, #17
 800190a:	f7ff fdef 	bl	80014ec <nanoc_output_emit2>
 800190e:	e7b4      	b.n	800187a <nanoc_statement+0x56>
 8001910:	4620      	mov	r0, r4
 8001912:	f7ff f8a7 	bl	8000a64 <nanoc_break>
 8001916:	4606      	mov	r6, r0
 8001918:	e7af      	b.n	800187a <nanoc_statement+0x56>
 800191a:	4620      	mov	r0, r4
 800191c:	f7ff f8ba 	bl	8000a94 <nanoc_continue>
 8001920:	4606      	mov	r6, r0
 8001922:	e7aa      	b.n	800187a <nanoc_statement+0x56>
 8001924:	4628      	mov	r0, r5
 8001926:	f000 fa13 	bl	8001d50 <nanoc_tokenstream_next>
 800192a:	2100      	movs	r1, #0
 800192c:	4628      	mov	r0, r5
 800192e:	f000 f9fd 	bl	8001d2c <nanoc_tokenstream_get>
 8001932:	7c03      	ldrb	r3, [r0, #16]
 8001934:	2b1f      	cmp	r3, #31
 8001936:	d014      	beq.n	8001962 <nanoc_statement+0x13e>
 8001938:	4620      	mov	r0, r4
 800193a:	f7ff fc33 	bl	80011a4 <nanoc_expression>
 800193e:	4606      	mov	r6, r0
 8001940:	2800      	cmp	r0, #0
 8001942:	d19a      	bne.n	800187a <nanoc_statement+0x56>
 8001944:	4601      	mov	r1, r0
 8001946:	4628      	mov	r0, r5
 8001948:	f000 f9f0 	bl	8001d2c <nanoc_tokenstream_get>
 800194c:	7c03      	ldrb	r3, [r0, #16]
 800194e:	2b1f      	cmp	r3, #31
 8001950:	d130      	bne.n	80019b4 <nanoc_statement+0x190>
 8001952:	f504 74c2 	add.w	r4, r4, #388	; 0x184
 8001956:	4620      	mov	r0, r4
 8001958:	210c      	movs	r1, #12
 800195a:	f7ff fdbf 	bl	80014dc <nanoc_output_emit>
 800195e:	2600      	movs	r6, #0
 8001960:	e78b      	b.n	800187a <nanoc_statement+0x56>
 8001962:	f504 74c2 	add.w	r4, r4, #388	; 0x184
 8001966:	4620      	mov	r0, r4
 8001968:	2200      	movs	r2, #0
 800196a:	2101      	movs	r1, #1
 800196c:	f7ff fdbe 	bl	80014ec <nanoc_output_emit2>
 8001970:	e7f1      	b.n	8001956 <nanoc_statement+0x132>
 8001972:	ab01      	add	r3, sp, #4
 8001974:	68ba      	ldr	r2, [r7, #8]
 8001976:	6839      	ldr	r1, [r7, #0]
 8001978:	f504 70d0 	add.w	r0, r4, #416	; 0x1a0
 800197c:	f7ff fe4e 	bl	800161c <nanoc_map_find>
 8001980:	b9d0      	cbnz	r0, 80019b8 <nanoc_statement+0x194>
 8001982:	260e      	movs	r6, #14
 8001984:	e779      	b.n	800187a <nanoc_statement+0x56>
 8001986:	4620      	mov	r0, r4
 8001988:	f7ff ff12 	bl	80017b0 <nanoc_fn_call>
 800198c:	4606      	mov	r6, r0
 800198e:	2800      	cmp	r0, #0
 8001990:	f47f af73 	bne.w	800187a <nanoc_statement+0x56>
 8001994:	210f      	movs	r1, #15
 8001996:	f504 70c2 	add.w	r0, r4, #388	; 0x184
 800199a:	f7ff fd9f 	bl	80014dc <nanoc_output_emit>
 800199e:	4628      	mov	r0, r5
 80019a0:	f000 f9d6 	bl	8001d50 <nanoc_tokenstream_next>
 80019a4:	4631      	mov	r1, r6
 80019a6:	4628      	mov	r0, r5
 80019a8:	f000 f9c0 	bl	8001d2c <nanoc_tokenstream_get>
 80019ac:	7c03      	ldrb	r3, [r0, #16]
 80019ae:	2b1f      	cmp	r3, #31
 80019b0:	f43f af63 	beq.w	800187a <nanoc_statement+0x56>
 80019b4:	2602      	movs	r6, #2
 80019b6:	e760      	b.n	800187a <nanoc_statement+0x56>
 80019b8:	4628      	mov	r0, r5
 80019ba:	f000 f9c9 	bl	8001d50 <nanoc_tokenstream_next>
 80019be:	4b15      	ldr	r3, [pc, #84]	; (8001a14 <nanoc_statement+0x1f0>)
 80019c0:	f8dd 8004 	ldr.w	r8, [sp, #4]
 80019c4:	5d9f      	ldrb	r7, [r3, r6]
 80019c6:	4628      	mov	r0, r5
 80019c8:	f000 f9c2 	bl	8001d50 <nanoc_tokenstream_next>
 80019cc:	b97f      	cbnz	r7, 80019ee <nanoc_statement+0x1ca>
 80019ce:	4620      	mov	r0, r4
 80019d0:	f7ff fbe8 	bl	80011a4 <nanoc_expression>
 80019d4:	4606      	mov	r6, r0
 80019d6:	2800      	cmp	r0, #0
 80019d8:	f47f af4f 	bne.w	800187a <nanoc_statement+0x56>
 80019dc:	f504 75c2 	add.w	r5, r4, #388	; 0x184
 80019e0:	4642      	mov	r2, r8
 80019e2:	4628      	mov	r0, r5
 80019e4:	2105      	movs	r1, #5
 80019e6:	f7ff fd81 	bl	80014ec <nanoc_output_emit2>
 80019ea:	2600      	movs	r6, #0
 80019ec:	e745      	b.n	800187a <nanoc_statement+0x56>
 80019ee:	f504 75c2 	add.w	r5, r4, #388	; 0x184
 80019f2:	4628      	mov	r0, r5
 80019f4:	4642      	mov	r2, r8
 80019f6:	2104      	movs	r1, #4
 80019f8:	f7ff fd78 	bl	80014ec <nanoc_output_emit2>
 80019fc:	4620      	mov	r0, r4
 80019fe:	f7ff fbd1 	bl	80011a4 <nanoc_expression>
 8001a02:	4606      	mov	r6, r0
 8001a04:	2800      	cmp	r0, #0
 8001a06:	f47f af38 	bne.w	800187a <nanoc_statement+0x56>
 8001a0a:	4639      	mov	r1, r7
 8001a0c:	4628      	mov	r0, r5
 8001a0e:	f7ff fd65 	bl	80014dc <nanoc_output_emit>
 8001a12:	e7e5      	b.n	80019e0 <nanoc_statement+0x1bc>
 8001a14:	08003a60 	.word	0x08003a60

08001a18 <nanoc_block_inner>:
 8001a18:	b538      	push	{r3, r4, r5, lr}
 8001a1a:	f500 74a0 	add.w	r4, r0, #320	; 0x140
 8001a1e:	4605      	mov	r5, r0
 8001a20:	4620      	mov	r0, r4
 8001a22:	f000 f995 	bl	8001d50 <nanoc_tokenstream_next>
 8001a26:	e005      	b.n	8001a34 <nanoc_block_inner+0x1c>
 8001a28:	f7ff fefc 	bl	8001824 <nanoc_statement>
 8001a2c:	b958      	cbnz	r0, 8001a46 <nanoc_block_inner+0x2e>
 8001a2e:	4620      	mov	r0, r4
 8001a30:	f000 f98e 	bl	8001d50 <nanoc_tokenstream_next>
 8001a34:	2100      	movs	r1, #0
 8001a36:	4620      	mov	r0, r4
 8001a38:	f000 f978 	bl	8001d2c <nanoc_tokenstream_get>
 8001a3c:	7c03      	ldrb	r3, [r0, #16]
 8001a3e:	2b1b      	cmp	r3, #27
 8001a40:	4628      	mov	r0, r5
 8001a42:	d1f1      	bne.n	8001a28 <nanoc_block_inner+0x10>
 8001a44:	2000      	movs	r0, #0
 8001a46:	bd38      	pop	{r3, r4, r5, pc}

08001a48 <nanoc_block>:
 8001a48:	b510      	push	{r4, lr}
 8001a4a:	2100      	movs	r1, #0
 8001a4c:	4604      	mov	r4, r0
 8001a4e:	f500 70a0 	add.w	r0, r0, #320	; 0x140
 8001a52:	f000 f96b 	bl	8001d2c <nanoc_tokenstream_get>
 8001a56:	7c03      	ldrb	r3, [r0, #16]
 8001a58:	2b1a      	cmp	r3, #26
 8001a5a:	d001      	beq.n	8001a60 <nanoc_block+0x18>
 8001a5c:	2005      	movs	r0, #5
 8001a5e:	bd10      	pop	{r4, pc}
 8001a60:	4620      	mov	r0, r4
 8001a62:	e8bd 4010 	ldmia.w	sp!, {r4, lr}
 8001a66:	f7ff bfd7 	b.w	8001a18 <nanoc_block_inner>
 8001a6a:	bf00      	nop

08001a6c <_escape_sequence>:
 8001a6c:	b410      	push	{r4}
 8001a6e:	7804      	ldrb	r4, [r0, #0]
 8001a70:	2c78      	cmp	r4, #120	; 0x78
 8001a72:	d016      	beq.n	8001aa2 <_escape_sequence+0x36>
 8001a74:	2c5c      	cmp	r4, #92	; 0x5c
 8001a76:	d00c      	beq.n	8001a92 <_escape_sequence+0x26>
 8001a78:	4a1f      	ldr	r2, [pc, #124]	; (8001af8 <_escape_sequence+0x8c>)
 8001a7a:	2327      	movs	r3, #39	; 0x27
 8001a7c:	429c      	cmp	r4, r3
 8001a7e:	4610      	mov	r0, r2
 8001a80:	d008      	beq.n	8001a94 <_escape_sequence+0x28>
 8001a82:	f812 3f02 	ldrb.w	r3, [r2, #2]!
 8001a86:	2b00      	cmp	r3, #0
 8001a88:	d1f8      	bne.n	8001a7c <_escape_sequence+0x10>
 8001a8a:	f04f 30ff 	mov.w	r0, #4294967295	; 0xffffffff
 8001a8e:	bc10      	pop	{r4}
 8001a90:	4770      	bx	lr
 8001a92:	481a      	ldr	r0, [pc, #104]	; (8001afc <_escape_sequence+0x90>)
 8001a94:	bc10      	pop	{r4}
 8001a96:	2301      	movs	r3, #1
 8001a98:	600b      	str	r3, [r1, #0]
 8001a9a:	7840      	ldrb	r0, [r0, #1]
 8001a9c:	f020 0080 	bic.w	r0, r0, #128	; 0x80
 8001aa0:	4770      	bx	lr
 8001aa2:	7843      	ldrb	r3, [r0, #1]
 8001aa4:	f1a3 0230 	sub.w	r2, r3, #48	; 0x30
 8001aa8:	2a09      	cmp	r2, #9
 8001aaa:	d818      	bhi.n	8001ade <_escape_sequence+0x72>
 8001aac:	7883      	ldrb	r3, [r0, #2]
 8001aae:	f1a3 0230 	sub.w	r2, r3, #48	; 0x30
 8001ab2:	2a09      	cmp	r2, #9
 8001ab4:	d819      	bhi.n	8001aea <_escape_sequence+0x7e>
 8001ab6:	2303      	movs	r3, #3
 8001ab8:	600b      	str	r3, [r1, #0]
 8001aba:	7843      	ldrb	r3, [r0, #1]
 8001abc:	bc10      	pop	{r4}
 8001abe:	f003 020f 	and.w	r2, r3, #15
 8001ac2:	2b40      	cmp	r3, #64	; 0x40
 8001ac4:	7883      	ldrb	r3, [r0, #2]
 8001ac6:	bf88      	it	hi
 8001ac8:	3209      	addhi	r2, #9
 8001aca:	f003 000f 	and.w	r0, r3, #15
 8001ace:	2b40      	cmp	r3, #64	; 0x40
 8001ad0:	eb00 1002 	add.w	r0, r0, r2, lsl #4
 8001ad4:	bf8c      	ite	hi
 8001ad6:	2309      	movhi	r3, #9
 8001ad8:	2300      	movls	r3, #0
 8001ada:	4418      	add	r0, r3
 8001adc:	4770      	bx	lr
 8001ade:	f023 0320 	bic.w	r3, r3, #32
 8001ae2:	3b41      	subs	r3, #65	; 0x41
 8001ae4:	2b05      	cmp	r3, #5
 8001ae6:	d8c7      	bhi.n	8001a78 <_escape_sequence+0xc>
 8001ae8:	e7e0      	b.n	8001aac <_escape_sequence+0x40>
 8001aea:	f023 0320 	bic.w	r3, r3, #32
 8001aee:	3b41      	subs	r3, #65	; 0x41
 8001af0:	2b05      	cmp	r3, #5
 8001af2:	d8c1      	bhi.n	8001a78 <_escape_sequence+0xc>
 8001af4:	e7df      	b.n	8001ab6 <_escape_sequence+0x4a>
 8001af6:	bf00      	nop
 8001af8:	08003a6e 	.word	0x08003a6e
 8001afc:	08003a6c 	.word	0x08003a6c

08001b00 <nanoc_lexer_char>:
 8001b00:	6843      	ldr	r3, [r0, #4]
 8001b02:	781a      	ldrb	r2, [r3, #0]
 8001b04:	2a27      	cmp	r2, #39	; 0x27
 8001b06:	d001      	beq.n	8001b0c <nanoc_lexer_char+0xc>
 8001b08:	2000      	movs	r0, #0
 8001b0a:	4770      	bx	lr
 8001b0c:	b5f0      	push	{r4, r5, r6, r7, lr}
 8001b0e:	4605      	mov	r5, r0
 8001b10:	7858      	ldrb	r0, [r3, #1]
 8001b12:	285c      	cmp	r0, #92	; 0x5c
 8001b14:	b083      	sub	sp, #12
 8001b16:	460f      	mov	r7, r1
 8001b18:	d01a      	beq.n	8001b50 <nanoc_lexer_char+0x50>
 8001b1a:	f1a0 0220 	sub.w	r2, r0, #32
 8001b1e:	2a5e      	cmp	r2, #94	; 0x5e
 8001b20:	d806      	bhi.n	8001b30 <nanoc_lexer_char+0x30>
 8001b22:	2827      	cmp	r0, #39	; 0x27
 8001b24:	d004      	beq.n	8001b30 <nanoc_lexer_char+0x30>
 8001b26:	4606      	mov	r6, r0
 8001b28:	3302      	adds	r3, #2
 8001b2a:	781a      	ldrb	r2, [r3, #0]
 8001b2c:	2a27      	cmp	r2, #39	; 0x27
 8001b2e:	d002      	beq.n	8001b36 <nanoc_lexer_char+0x36>
 8001b30:	2000      	movs	r0, #0
 8001b32:	b003      	add	sp, #12
 8001b34:	bdf0      	pop	{r4, r5, r6, r7, pc}
 8001b36:	1c5c      	adds	r4, r3, #1
 8001b38:	4628      	mov	r0, r5
 8001b3a:	4621      	mov	r1, r4
 8001b3c:	f000 f876 	bl	8001c2c <nanoc_lexer_forward>
 8001b40:	683b      	ldr	r3, [r7, #0]
 8001b42:	617e      	str	r6, [r7, #20]
 8001b44:	1ae3      	subs	r3, r4, r3
 8001b46:	2203      	movs	r2, #3
 8001b48:	60bb      	str	r3, [r7, #8]
 8001b4a:	743a      	strb	r2, [r7, #16]
 8001b4c:	2001      	movs	r0, #1
 8001b4e:	e7f0      	b.n	8001b32 <nanoc_lexer_char+0x32>
 8001b50:	1c9c      	adds	r4, r3, #2
 8001b52:	4620      	mov	r0, r4
 8001b54:	a901      	add	r1, sp, #4
 8001b56:	f7ff ff89 	bl	8001a6c <_escape_sequence>
 8001b5a:	1e06      	subs	r6, r0, #0
 8001b5c:	dbe8      	blt.n	8001b30 <nanoc_lexer_char+0x30>
 8001b5e:	9b01      	ldr	r3, [sp, #4]
 8001b60:	4423      	add	r3, r4
 8001b62:	e7e2      	b.n	8001b2a <nanoc_lexer_char+0x2a>

08001b64 <nanoc_lexer_string>:
 8001b64:	6843      	ldr	r3, [r0, #4]
 8001b66:	781a      	ldrb	r2, [r3, #0]
 8001b68:	2a22      	cmp	r2, #34	; 0x22
 8001b6a:	d001      	beq.n	8001b70 <nanoc_lexer_string+0xc>
 8001b6c:	2000      	movs	r0, #0
 8001b6e:	4770      	bx	lr
 8001b70:	b570      	push	{r4, r5, r6, lr}
 8001b72:	3301      	adds	r3, #1
 8001b74:	b082      	sub	sp, #8
 8001b76:	460d      	mov	r5, r1
 8001b78:	4606      	mov	r6, r0
 8001b7a:	781a      	ldrb	r2, [r3, #0]
 8001b7c:	2a22      	cmp	r2, #34	; 0x22
 8001b7e:	f1a2 0420 	sub.w	r4, r2, #32
 8001b82:	d009      	beq.n	8001b98 <nanoc_lexer_string+0x34>
 8001b84:	2a5c      	cmp	r2, #92	; 0x5c
 8001b86:	d014      	beq.n	8001bb2 <nanoc_lexer_string+0x4e>
 8001b88:	2c5e      	cmp	r4, #94	; 0x5e
 8001b8a:	d81c      	bhi.n	8001bc6 <nanoc_lexer_string+0x62>
 8001b8c:	3301      	adds	r3, #1
 8001b8e:	781a      	ldrb	r2, [r3, #0]
 8001b90:	2a22      	cmp	r2, #34	; 0x22
 8001b92:	f1a2 0420 	sub.w	r4, r2, #32
 8001b96:	d1f5      	bne.n	8001b84 <nanoc_lexer_string+0x20>
 8001b98:	1c5c      	adds	r4, r3, #1
 8001b9a:	4630      	mov	r0, r6
 8001b9c:	4621      	mov	r1, r4
 8001b9e:	f000 f845 	bl	8001c2c <nanoc_lexer_forward>
 8001ba2:	682b      	ldr	r3, [r5, #0]
 8001ba4:	2205      	movs	r2, #5
 8001ba6:	1ae3      	subs	r3, r4, r3
 8001ba8:	2001      	movs	r0, #1
 8001baa:	60ab      	str	r3, [r5, #8]
 8001bac:	742a      	strb	r2, [r5, #16]
 8001bae:	b002      	add	sp, #8
 8001bb0:	bd70      	pop	{r4, r5, r6, pc}
 8001bb2:	1c5c      	adds	r4, r3, #1
 8001bb4:	4620      	mov	r0, r4
 8001bb6:	a901      	add	r1, sp, #4
 8001bb8:	f7ff ff58 	bl	8001a6c <_escape_sequence>
 8001bbc:	2800      	cmp	r0, #0
 8001bbe:	db02      	blt.n	8001bc6 <nanoc_lexer_string+0x62>
 8001bc0:	9b01      	ldr	r3, [sp, #4]
 8001bc2:	4423      	add	r3, r4
 8001bc4:	e7d9      	b.n	8001b7a <nanoc_lexer_string+0x16>
 8001bc6:	2000      	movs	r0, #0
 8001bc8:	b002      	add	sp, #8
 8001bca:	bd70      	pop	{r4, r5, r6, pc}

08001bcc <nanoc_lexer_advance>:
 8001bcc:	7b03      	ldrb	r3, [r0, #12]
 8001bce:	b17b      	cbz	r3, 8001bf0 <nanoc_lexer_advance+0x24>
 8001bd0:	8802      	ldrh	r2, [r0, #0]
 8001bd2:	2b09      	cmp	r3, #9
 8001bd4:	bf0a      	itet	eq
 8001bd6:	1d13      	addeq	r3, r2, #4
 8001bd8:	1c53      	addne	r3, r2, #1
 8001bda:	f023 0303 	biceq.w	r3, r3, #3
 8001bde:	6842      	ldr	r2, [r0, #4]
 8001be0:	b21b      	sxth	r3, r3
 8001be2:	8003      	strh	r3, [r0, #0]
 8001be4:	1c53      	adds	r3, r2, #1
 8001be6:	6043      	str	r3, [r0, #4]
 8001be8:	7853      	ldrb	r3, [r2, #1]
 8001bea:	7303      	strb	r3, [r0, #12]
 8001bec:	2b0a      	cmp	r3, #10
 8001bee:	d001      	beq.n	8001bf4 <nanoc_lexer_advance+0x28>
 8001bf0:	4618      	mov	r0, r3
 8001bf2:	4770      	bx	lr
 8001bf4:	8841      	ldrh	r1, [r0, #2]
 8001bf6:	b410      	push	{r4}
 8001bf8:	3202      	adds	r2, #2
 8001bfa:	f64f 74ff 	movw	r4, #65535	; 0xffff
 8001bfe:	3101      	adds	r1, #1
 8001c00:	8004      	strh	r4, [r0, #0]
 8001c02:	6082      	str	r2, [r0, #8]
 8001c04:	8041      	strh	r1, [r0, #2]
 8001c06:	bc10      	pop	{r4}
 8001c08:	4618      	mov	r0, r3
 8001c0a:	4770      	bx	lr

08001c0c <nanoc_lexer_init>:
 8001c0c:	e9c0 1101 	strd	r1, r1, [r0, #4]
 8001c10:	f44f 3380 	mov.w	r3, #65536	; 0x10000
 8001c14:	6003      	str	r3, [r0, #0]
 8001c16:	780b      	ldrb	r3, [r1, #0]
 8001c18:	7303      	strb	r3, [r0, #12]
 8001c1a:	2b0a      	cmp	r3, #10
 8001c1c:	d103      	bne.n	8001c26 <nanoc_lexer_init+0x1a>
 8001c1e:	3101      	adds	r1, #1
 8001c20:	4b01      	ldr	r3, [pc, #4]	; (8001c28 <nanoc_lexer_init+0x1c>)
 8001c22:	6081      	str	r1, [r0, #8]
 8001c24:	6003      	str	r3, [r0, #0]
 8001c26:	4770      	bx	lr
 8001c28:	0002ffff 	.word	0x0002ffff

08001c2c <nanoc_lexer_forward>:
 8001c2c:	b538      	push	{r3, r4, r5, lr}
 8001c2e:	6843      	ldr	r3, [r0, #4]
 8001c30:	4299      	cmp	r1, r3
 8001c32:	d907      	bls.n	8001c44 <nanoc_lexer_forward+0x18>
 8001c34:	4604      	mov	r4, r0
 8001c36:	460d      	mov	r5, r1
 8001c38:	4620      	mov	r0, r4
 8001c3a:	f7ff ffc7 	bl	8001bcc <nanoc_lexer_advance>
 8001c3e:	6863      	ldr	r3, [r4, #4]
 8001c40:	42ab      	cmp	r3, r5
 8001c42:	d3f9      	bcc.n	8001c38 <nanoc_lexer_forward+0xc>
 8001c44:	bd38      	pop	{r3, r4, r5, pc}
 8001c46:	bf00      	nop

08001c48 <nanoc_lexer_next>:
 8001c48:	b538      	push	{r3, r4, r5, lr}
 8001c4a:	4604      	mov	r4, r0
 8001c4c:	460d      	mov	r5, r1
 8001c4e:	7b23      	ldrb	r3, [r4, #12]
 8001c50:	2b2f      	cmp	r3, #47	; 0x2f
 8001c52:	d01c      	beq.n	8001c8e <nanoc_lexer_next+0x46>
 8001c54:	2b20      	cmp	r3, #32
 8001c56:	d014      	beq.n	8001c82 <nanoc_lexer_next+0x3a>
 8001c58:	f1a3 0209 	sub.w	r2, r3, #9
 8001c5c:	2a01      	cmp	r2, #1
 8001c5e:	d910      	bls.n	8001c82 <nanoc_lexer_next+0x3a>
 8001c60:	e9d4 0100 	ldrd	r0, r1, [r4]
 8001c64:	68a2      	ldr	r2, [r4, #8]
 8001c66:	60e8      	str	r0, [r5, #12]
 8001c68:	e9c5 1200 	strd	r1, r2, [r5]
 8001c6c:	b9d3      	cbnz	r3, 8001ca4 <nanoc_lexer_next+0x5c>
 8001c6e:	742b      	strb	r3, [r5, #16]
 8001c70:	bd38      	pop	{r3, r4, r5, pc}
 8001c72:	4620      	mov	r0, r4
 8001c74:	f7ff ffaa 	bl	8001bcc <nanoc_lexer_advance>
 8001c78:	4620      	mov	r0, r4
 8001c7a:	f7ff ffa7 	bl	8001bcc <nanoc_lexer_advance>
 8001c7e:	280a      	cmp	r0, #10
 8001c80:	d1fa      	bne.n	8001c78 <nanoc_lexer_next+0x30>
 8001c82:	4620      	mov	r0, r4
 8001c84:	f7ff ffa2 	bl	8001bcc <nanoc_lexer_advance>
 8001c88:	7b23      	ldrb	r3, [r4, #12]
 8001c8a:	2b2f      	cmp	r3, #47	; 0x2f
 8001c8c:	d1e2      	bne.n	8001c54 <nanoc_lexer_next+0xc>
 8001c8e:	6862      	ldr	r2, [r4, #4]
 8001c90:	7853      	ldrb	r3, [r2, #1]
 8001c92:	2b2a      	cmp	r3, #42	; 0x2a
 8001c94:	d024      	beq.n	8001ce0 <nanoc_lexer_next+0x98>
 8001c96:	2b2f      	cmp	r3, #47	; 0x2f
 8001c98:	d0eb      	beq.n	8001c72 <nanoc_lexer_next+0x2a>
 8001c9a:	68a3      	ldr	r3, [r4, #8]
 8001c9c:	6821      	ldr	r1, [r4, #0]
 8001c9e:	60e9      	str	r1, [r5, #12]
 8001ca0:	e9c5 2300 	strd	r2, r3, [r5]
 8001ca4:	4629      	mov	r1, r5
 8001ca6:	4620      	mov	r0, r4
 8001ca8:	f000 f862 	bl	8001d70 <nanoc_lexer_identifier>
 8001cac:	2800      	cmp	r0, #0
 8001cae:	d1df      	bne.n	8001c70 <nanoc_lexer_next+0x28>
 8001cb0:	4629      	mov	r1, r5
 8001cb2:	4620      	mov	r0, r4
 8001cb4:	f000 f8b0 	bl	8001e18 <nanoc_lexer_number>
 8001cb8:	2800      	cmp	r0, #0
 8001cba:	d1d9      	bne.n	8001c70 <nanoc_lexer_next+0x28>
 8001cbc:	4629      	mov	r1, r5
 8001cbe:	4620      	mov	r0, r4
 8001cc0:	f7ff ff1e 	bl	8001b00 <nanoc_lexer_char>
 8001cc4:	2800      	cmp	r0, #0
 8001cc6:	d1d3      	bne.n	8001c70 <nanoc_lexer_next+0x28>
 8001cc8:	4629      	mov	r1, r5
 8001cca:	4620      	mov	r0, r4
 8001ccc:	f7ff ff4a 	bl	8001b64 <nanoc_lexer_string>
 8001cd0:	2800      	cmp	r0, #0
 8001cd2:	d1cd      	bne.n	8001c70 <nanoc_lexer_next+0x28>
 8001cd4:	4629      	mov	r1, r5
 8001cd6:	4620      	mov	r0, r4
 8001cd8:	e8bd 4038 	ldmia.w	sp!, {r3, r4, r5, lr}
 8001cdc:	f7ff ba1e 	b.w	800111c <nanoc_lexer_operator>
 8001ce0:	4620      	mov	r0, r4
 8001ce2:	f7ff ff73 	bl	8001bcc <nanoc_lexer_advance>
 8001ce6:	4620      	mov	r0, r4
 8001ce8:	f7ff ff70 	bl	8001bcc <nanoc_lexer_advance>
 8001cec:	2800      	cmp	r0, #0
 8001cee:	d0c8      	beq.n	8001c82 <nanoc_lexer_next+0x3a>
 8001cf0:	4620      	mov	r0, r4
 8001cf2:	f7ff ff6b 	bl	8001bcc <nanoc_lexer_advance>
 8001cf6:	282a      	cmp	r0, #42	; 0x2a
 8001cf8:	d1f8      	bne.n	8001cec <nanoc_lexer_next+0xa4>
 8001cfa:	4620      	mov	r0, r4
 8001cfc:	f7ff ff66 	bl	8001bcc <nanoc_lexer_advance>
 8001d00:	282f      	cmp	r0, #47	; 0x2f
 8001d02:	d1f3      	bne.n	8001cec <nanoc_lexer_next+0xa4>
 8001d04:	e7bd      	b.n	8001c82 <nanoc_lexer_next+0x3a>
 8001d06:	bf00      	nop

08001d08 <nanoc_tokenstream_init>:
 8001d08:	b510      	push	{r4, lr}
 8001d0a:	4604      	mov	r4, r0
 8001d0c:	f7ff ff7e 	bl	8001c0c <nanoc_lexer_init>
 8001d10:	2300      	movs	r3, #0
 8001d12:	f104 0110 	add.w	r1, r4, #16
 8001d16:	4620      	mov	r0, r4
 8001d18:	6423      	str	r3, [r4, #64]	; 0x40
 8001d1a:	f7ff ff95 	bl	8001c48 <nanoc_lexer_next>
 8001d1e:	f104 0128 	add.w	r1, r4, #40	; 0x28
 8001d22:	4620      	mov	r0, r4
 8001d24:	e8bd 4010 	ldmia.w	sp!, {r4, lr}
 8001d28:	f7ff bf8e 	b.w	8001c48 <nanoc_lexer_next>

08001d2c <nanoc_tokenstream_get>:
 8001d2c:	2901      	cmp	r1, #1
 8001d2e:	b538      	push	{r3, r4, r5, lr}
 8001d30:	460c      	mov	r4, r1
 8001d32:	4605      	mov	r5, r0
 8001d34:	d901      	bls.n	8001d3a <nanoc_tokenstream_get+0xe>
 8001d36:	f001 f809 	bl	8002d4c <panic>
 8001d3a:	6c29      	ldr	r1, [r5, #64]	; 0x40
 8001d3c:	440c      	add	r4, r1
 8001d3e:	f004 0401 	and.w	r4, r4, #1
 8001d42:	0060      	lsls	r0, r4, #1
 8001d44:	4420      	add	r0, r4
 8001d46:	eb05 00c0 	add.w	r0, r5, r0, lsl #3
 8001d4a:	3010      	adds	r0, #16
 8001d4c:	bd38      	pop	{r3, r4, r5, pc}
 8001d4e:	bf00      	nop

08001d50 <nanoc_tokenstream_next>:
 8001d50:	6c01      	ldr	r1, [r0, #64]	; 0x40
 8001d52:	eb01 0141 	add.w	r1, r1, r1, lsl #1
 8001d56:	b510      	push	{r4, lr}
 8001d58:	eb00 01c1 	add.w	r1, r0, r1, lsl #3
 8001d5c:	4604      	mov	r4, r0
 8001d5e:	3110      	adds	r1, #16
 8001d60:	f7ff ff72 	bl	8001c48 <nanoc_lexer_next>
 8001d64:	6c23      	ldr	r3, [r4, #64]	; 0x40
 8001d66:	3301      	adds	r3, #1
 8001d68:	f003 0301 	and.w	r3, r3, #1
 8001d6c:	6423      	str	r3, [r4, #64]	; 0x40
 8001d6e:	bd10      	pop	{r4, pc}

08001d70 <nanoc_lexer_identifier>:
 8001d70:	b5f8      	push	{r3, r4, r5, r6, r7, lr}
 8001d72:	7b02      	ldrb	r2, [r0, #12]
 8001d74:	f022 0320 	bic.w	r3, r2, #32
 8001d78:	3b41      	subs	r3, #65	; 0x41
 8001d7a:	2b19      	cmp	r3, #25
 8001d7c:	4604      	mov	r4, r0
 8001d7e:	460d      	mov	r5, r1
 8001d80:	d903      	bls.n	8001d8a <nanoc_lexer_identifier+0x1a>
 8001d82:	2a5f      	cmp	r2, #95	; 0x5f
 8001d84:	d001      	beq.n	8001d8a <nanoc_lexer_identifier+0x1a>
 8001d86:	2000      	movs	r0, #0
 8001d88:	bdf8      	pop	{r3, r4, r5, r6, r7, pc}
 8001d8a:	4620      	mov	r0, r4
 8001d8c:	f7ff ff1e 	bl	8001bcc <nanoc_lexer_advance>
 8001d90:	f1a0 0361 	sub.w	r3, r0, #97	; 0x61
 8001d94:	2b19      	cmp	r3, #25
 8001d96:	f1a0 0241 	sub.w	r2, r0, #65	; 0x41
 8001d9a:	d9f6      	bls.n	8001d8a <nanoc_lexer_identifier+0x1a>
 8001d9c:	2a19      	cmp	r2, #25
 8001d9e:	f1a0 0330 	sub.w	r3, r0, #48	; 0x30
 8001da2:	d9f2      	bls.n	8001d8a <nanoc_lexer_identifier+0x1a>
 8001da4:	2b09      	cmp	r3, #9
 8001da6:	d9f0      	bls.n	8001d8a <nanoc_lexer_identifier+0x1a>
 8001da8:	285f      	cmp	r0, #95	; 0x5f
 8001daa:	d0ee      	beq.n	8001d8a <nanoc_lexer_identifier+0x1a>
 8001dac:	f8d4 c004 	ldr.w	ip, [r4, #4]
 8001db0:	682e      	ldr	r6, [r5, #0]
 8001db2:	4b18      	ldr	r3, [pc, #96]	; (8001e14 <nanoc_lexer_identifier+0xa4>)
 8001db4:	ebac 0206 	sub.w	r2, ip, r6
 8001db8:	60aa      	str	r2, [r5, #8]
 8001dba:	f896 e000 	ldrb.w	lr, [r6]
 8001dbe:	2169      	movs	r1, #105	; 0x69
 8001dc0:	4571      	cmp	r1, lr
 8001dc2:	d119      	bne.n	8001df8 <nanoc_lexer_identifier+0x88>
 8001dc4:	3301      	adds	r3, #1
 8001dc6:	1c74      	adds	r4, r6, #1
 8001dc8:	7827      	ldrb	r7, [r4, #0]
 8001dca:	461a      	mov	r2, r3
 8001dcc:	f813 1b01 	ldrb.w	r1, [r3], #1
 8001dd0:	428f      	cmp	r7, r1
 8001dd2:	4620      	mov	r0, r4
 8001dd4:	f104 0401 	add.w	r4, r4, #1
 8001dd8:	d0f6      	beq.n	8001dc8 <nanoc_lexer_identifier+0x58>
 8001dda:	060b      	lsls	r3, r1, #24
 8001ddc:	d410      	bmi.n	8001e00 <nanoc_lexer_identifier+0x90>
 8001dde:	f992 3000 	ldrsb.w	r3, [r2]
 8001de2:	2b00      	cmp	r3, #0
 8001de4:	db03      	blt.n	8001dee <nanoc_lexer_identifier+0x7e>
 8001de6:	f912 3f01 	ldrsb.w	r3, [r2, #1]!
 8001dea:	2b00      	cmp	r3, #0
 8001dec:	dafb      	bge.n	8001de6 <nanoc_lexer_identifier+0x76>
 8001dee:	7851      	ldrb	r1, [r2, #1]
 8001df0:	4571      	cmp	r1, lr
 8001df2:	f102 0301 	add.w	r3, r2, #1
 8001df6:	d0e5      	beq.n	8001dc4 <nanoc_lexer_identifier+0x54>
 8001df8:	461a      	mov	r2, r3
 8001dfa:	060b      	lsls	r3, r1, #24
 8001dfc:	4630      	mov	r0, r6
 8001dfe:	d5ee      	bpl.n	8001dde <nanoc_lexer_identifier+0x6e>
 8001e00:	4584      	cmp	ip, r0
 8001e02:	d001      	beq.n	8001e08 <nanoc_lexer_identifier+0x98>
 8001e04:	4286      	cmp	r6, r0
 8001e06:	d1ea      	bne.n	8001dde <nanoc_lexer_identifier+0x6e>
 8001e08:	f021 0180 	bic.w	r1, r1, #128	; 0x80
 8001e0c:	7429      	strb	r1, [r5, #16]
 8001e0e:	2001      	movs	r0, #1
 8001e10:	bdf8      	pop	{r3, r4, r5, r6, r7, pc}
 8001e12:	bf00      	nop
 8001e14:	08003a80 	.word	0x08003a80

08001e18 <nanoc_lexer_number>:
 8001e18:	7b03      	ldrb	r3, [r0, #12]
 8001e1a:	f1a3 0230 	sub.w	r2, r3, #48	; 0x30
 8001e1e:	2a09      	cmp	r2, #9
 8001e20:	d83b      	bhi.n	8001e9a <nanoc_lexer_number+0x82>
 8001e22:	2203      	movs	r2, #3
 8001e24:	2b30      	cmp	r3, #48	; 0x30
 8001e26:	b570      	push	{r4, r5, r6, lr}
 8001e28:	740a      	strb	r2, [r1, #16]
 8001e2a:	4605      	mov	r5, r0
 8001e2c:	460e      	mov	r6, r1
 8001e2e:	d015      	beq.n	8001e5c <nanoc_lexer_number+0x44>
 8001e30:	2400      	movs	r4, #0
 8001e32:	eb04 0484 	add.w	r4, r4, r4, lsl #2
 8001e36:	4628      	mov	r0, r5
 8001e38:	eb03 0444 	add.w	r4, r3, r4, lsl #1
 8001e3c:	f7ff fec6 	bl	8001bcc <nanoc_lexer_advance>
 8001e40:	f1a0 0230 	sub.w	r2, r0, #48	; 0x30
 8001e44:	2a09      	cmp	r2, #9
 8001e46:	f1a4 0430 	sub.w	r4, r4, #48	; 0x30
 8001e4a:	4603      	mov	r3, r0
 8001e4c:	d9f1      	bls.n	8001e32 <nanoc_lexer_number+0x1a>
 8001e4e:	686b      	ldr	r3, [r5, #4]
 8001e50:	6832      	ldr	r2, [r6, #0]
 8001e52:	6174      	str	r4, [r6, #20]
 8001e54:	1a9b      	subs	r3, r3, r2
 8001e56:	60b3      	str	r3, [r6, #8]
 8001e58:	2001      	movs	r0, #1
 8001e5a:	bd70      	pop	{r4, r5, r6, pc}
 8001e5c:	6842      	ldr	r2, [r0, #4]
 8001e5e:	7853      	ldrb	r3, [r2, #1]
 8001e60:	2b78      	cmp	r3, #120	; 0x78
 8001e62:	d01c      	beq.n	8001e9e <nanoc_lexer_number+0x86>
 8001e64:	2b62      	cmp	r3, #98	; 0x62
 8001e66:	d103      	bne.n	8001e70 <nanoc_lexer_number+0x58>
 8001e68:	7893      	ldrb	r3, [r2, #2]
 8001e6a:	3b30      	subs	r3, #48	; 0x30
 8001e6c:	2b01      	cmp	r3, #1
 8001e6e:	d93a      	bls.n	8001ee6 <nanoc_lexer_number+0xce>
 8001e70:	4628      	mov	r0, r5
 8001e72:	f7ff feab 	bl	8001bcc <nanoc_lexer_advance>
 8001e76:	f1a0 0330 	sub.w	r3, r0, #48	; 0x30
 8001e7a:	2b07      	cmp	r3, #7
 8001e7c:	f04f 0400 	mov.w	r4, #0
 8001e80:	d8e5      	bhi.n	8001e4e <nanoc_lexer_number+0x36>
 8001e82:	eb00 04c4 	add.w	r4, r0, r4, lsl #3
 8001e86:	4628      	mov	r0, r5
 8001e88:	f7ff fea0 	bl	8001bcc <nanoc_lexer_advance>
 8001e8c:	f1a0 0330 	sub.w	r3, r0, #48	; 0x30
 8001e90:	2b07      	cmp	r3, #7
 8001e92:	f1a4 0430 	sub.w	r4, r4, #48	; 0x30
 8001e96:	d9f4      	bls.n	8001e82 <nanoc_lexer_number+0x6a>
 8001e98:	e7d9      	b.n	8001e4e <nanoc_lexer_number+0x36>
 8001e9a:	2000      	movs	r0, #0
 8001e9c:	4770      	bx	lr
 8001e9e:	7893      	ldrb	r3, [r2, #2]
 8001ea0:	f1a3 0230 	sub.w	r2, r3, #48	; 0x30
 8001ea4:	2a09      	cmp	r2, #9
 8001ea6:	d902      	bls.n	8001eae <nanoc_lexer_number+0x96>
 8001ea8:	3b41      	subs	r3, #65	; 0x41
 8001eaa:	2b05      	cmp	r3, #5
 8001eac:	d8e0      	bhi.n	8001e70 <nanoc_lexer_number+0x58>
 8001eae:	4628      	mov	r0, r5
 8001eb0:	f7ff fe8c 	bl	8001bcc <nanoc_lexer_advance>
 8001eb4:	4628      	mov	r0, r5
 8001eb6:	f7ff fe89 	bl	8001bcc <nanoc_lexer_advance>
 8001eba:	2400      	movs	r4, #0
 8001ebc:	e006      	b.n	8001ecc <nanoc_lexer_number+0xb4>
 8001ebe:	0124      	lsls	r4, r4, #4
 8001ec0:	f000 030f 	and.w	r3, r0, #15
 8001ec4:	4628      	mov	r0, r5
 8001ec6:	441c      	add	r4, r3
 8001ec8:	f7ff fe80 	bl	8001bcc <nanoc_lexer_advance>
 8001ecc:	f1a0 0330 	sub.w	r3, r0, #48	; 0x30
 8001ed0:	2b09      	cmp	r3, #9
 8001ed2:	f1a0 0241 	sub.w	r2, r0, #65	; 0x41
 8001ed6:	d9f2      	bls.n	8001ebe <nanoc_lexer_number+0xa6>
 8001ed8:	2a05      	cmp	r2, #5
 8001eda:	d8b8      	bhi.n	8001e4e <nanoc_lexer_number+0x36>
 8001edc:	0124      	lsls	r4, r4, #4
 8001ede:	3409      	adds	r4, #9
 8001ee0:	f000 030f 	and.w	r3, r0, #15
 8001ee4:	e7ee      	b.n	8001ec4 <nanoc_lexer_number+0xac>
 8001ee6:	f7ff fe71 	bl	8001bcc <nanoc_lexer_advance>
 8001eea:	4628      	mov	r0, r5
 8001eec:	f7ff fe6e 	bl	8001bcc <nanoc_lexer_advance>
 8001ef0:	f1a0 0330 	sub.w	r3, r0, #48	; 0x30
 8001ef4:	2b01      	cmp	r3, #1
 8001ef6:	f04f 0400 	mov.w	r4, #0
 8001efa:	d8a8      	bhi.n	8001e4e <nanoc_lexer_number+0x36>
 8001efc:	eb00 0444 	add.w	r4, r0, r4, lsl #1
 8001f00:	4628      	mov	r0, r5
 8001f02:	f7ff fe63 	bl	8001bcc <nanoc_lexer_advance>
 8001f06:	f1a0 0330 	sub.w	r3, r0, #48	; 0x30
 8001f0a:	2b01      	cmp	r3, #1
 8001f0c:	f1a4 0430 	sub.w	r4, r4, #48	; 0x30
 8001f10:	d9f4      	bls.n	8001efc <nanoc_lexer_number+0xe4>
 8001f12:	e79c      	b.n	8001e4e <nanoc_lexer_number+0x36>

08001f14 <ps2_ll_init>:
 8001f14:	4915      	ldr	r1, [pc, #84]	; (8001f6c <ps2_ll_init+0x58>)
 8001f16:	4a16      	ldr	r2, [pc, #88]	; (8001f70 <ps2_ll_init+0x5c>)
 8001f18:	4b16      	ldr	r3, [pc, #88]	; (8001f74 <ps2_ll_init+0x60>)
 8001f1a:	4817      	ldr	r0, [pc, #92]	; (8001f78 <ps2_ll_init+0x64>)
 8001f1c:	b430      	push	{r4, r5}
 8001f1e:	6b0d      	ldr	r5, [r1, #48]	; 0x30
 8001f20:	4c16      	ldr	r4, [pc, #88]	; (8001f7c <ps2_ll_init+0x68>)
 8001f22:	f045 0540 	orr.w	r5, r5, #64	; 0x40
 8001f26:	630d      	str	r5, [r1, #48]	; 0x30
 8001f28:	6c4d      	ldr	r5, [r1, #68]	; 0x44
 8001f2a:	f445 4580 	orr.w	r5, r5, #16384	; 0x4000
 8001f2e:	644d      	str	r5, [r1, #68]	; 0x44
 8001f30:	6891      	ldr	r1, [r2, #8]
 8001f32:	4d13      	ldr	r5, [pc, #76]	; (8001f80 <ps2_ll_init+0x6c>)
 8001f34:	f021 010f 	bic.w	r1, r1, #15
 8001f38:	6091      	str	r1, [r2, #8]
 8001f3a:	6891      	ldr	r1, [r2, #8]
 8001f3c:	f041 0106 	orr.w	r1, r1, #6
 8001f40:	6091      	str	r1, [r2, #8]
 8001f42:	68da      	ldr	r2, [r3, #12]
 8001f44:	f042 0201 	orr.w	r2, r2, #1
 8001f48:	60da      	str	r2, [r3, #12]
 8001f4a:	681a      	ldr	r2, [r3, #0]
 8001f4c:	f042 0201 	orr.w	r2, r2, #1
 8001f50:	601a      	str	r2, [r3, #0]
 8001f52:	68e3      	ldr	r3, [r4, #12]
 8001f54:	f64f 02ff 	movw	r2, #63743	; 0xf8ff
 8001f58:	4013      	ands	r3, r2
 8001f5a:	4318      	orrs	r0, r3
 8001f5c:	2280      	movs	r2, #128	; 0x80
 8001f5e:	60e0      	str	r0, [r4, #12]
 8001f60:	2340      	movs	r3, #64	; 0x40
 8001f62:	f885 2306 	strb.w	r2, [r5, #774]	; 0x306
 8001f66:	602b      	str	r3, [r5, #0]
 8001f68:	bc30      	pop	{r4, r5}
 8001f6a:	4770      	bx	lr
 8001f6c:	40023800 	.word	0x40023800
 8001f70:	40013800 	.word	0x40013800
 8001f74:	40013c00 	.word	0x40013c00
 8001f78:	05fa0200 	.word	0x05fa0200
 8001f7c:	e000ed00 	.word	0xe000ed00
 8001f80:	e000e100 	.word	0xe000e100

08001f84 <EXTI0_IRQHandler>:
 8001f84:	4a03      	ldr	r2, [pc, #12]	; (8001f94 <EXTI0_IRQHandler+0x10>)
 8001f86:	6953      	ldr	r3, [r2, #20]
 8001f88:	f043 0301 	orr.w	r3, r3, #1
 8001f8c:	6153      	str	r3, [r2, #20]
 8001f8e:	f000 b8cb 	b.w	8002128 <ps2_clock_falling_edge>
 8001f92:	bf00      	nop
 8001f94:	40013c00 	.word	0x40013c00

08001f98 <ps2_data_read>:
 8001f98:	4b02      	ldr	r3, [pc, #8]	; (8001fa4 <ps2_data_read+0xc>)
 8001f9a:	6918      	ldr	r0, [r3, #16]
 8001f9c:	f000 0002 	and.w	r0, r0, #2
 8001fa0:	4770      	bx	lr
 8001fa2:	bf00      	nop
 8001fa4:	40021800 	.word	0x40021800

08001fa8 <key_to_codepoint>:
 8001fa8:	b2c3      	uxtb	r3, r0
 8001faa:	2b2b      	cmp	r3, #43	; 0x2b
 8001fac:	d050      	beq.n	8002050 <key_to_codepoint+0xa8>
 8001fae:	2b2a      	cmp	r3, #42	; 0x2a
 8001fb0:	d050      	beq.n	8002054 <key_to_codepoint+0xac>
 8001fb2:	2b28      	cmp	r3, #40	; 0x28
 8001fb4:	d050      	beq.n	8002058 <key_to_codepoint+0xb0>
 8001fb6:	2b2c      	cmp	r3, #44	; 0x2c
 8001fb8:	d050      	beq.n	800205c <key_to_codepoint+0xb4>
 8001fba:	f248 0236 	movw	r2, #32822	; 0x8036
 8001fbe:	4290      	cmp	r0, r2
 8001fc0:	d04e      	beq.n	8002060 <key_to_codepoint+0xb8>
 8001fc2:	2836      	cmp	r0, #54	; 0x36
 8001fc4:	d042      	beq.n	800204c <key_to_codepoint+0xa4>
 8001fc6:	f248 0237 	movw	r2, #32823	; 0x8037
 8001fca:	4290      	cmp	r0, r2
 8001fcc:	d04a      	beq.n	8002064 <key_to_codepoint+0xbc>
 8001fce:	2837      	cmp	r0, #55	; 0x37
 8001fd0:	d058      	beq.n	8002084 <key_to_codepoint+0xdc>
 8001fd2:	f248 0238 	movw	r2, #32824	; 0x8038
 8001fd6:	4290      	cmp	r0, r2
 8001fd8:	d056      	beq.n	8002088 <key_to_codepoint+0xe0>
 8001fda:	2838      	cmp	r0, #56	; 0x38
 8001fdc:	d056      	beq.n	800208c <key_to_codepoint+0xe4>
 8001fde:	f248 0231 	movw	r2, #32817	; 0x8031
 8001fe2:	4290      	cmp	r0, r2
 8001fe4:	d054      	beq.n	8002090 <key_to_codepoint+0xe8>
 8001fe6:	2831      	cmp	r0, #49	; 0x31
 8001fe8:	d054      	beq.n	8002094 <key_to_codepoint+0xec>
 8001fea:	f248 0230 	movw	r2, #32816	; 0x8030
 8001fee:	4290      	cmp	r0, r2
 8001ff0:	d046      	beq.n	8002080 <key_to_codepoint+0xd8>
 8001ff2:	f5b0 6f03 	cmp.w	r0, #2096	; 0x830
 8001ff6:	d04f      	beq.n	8002098 <key_to_codepoint+0xf0>
 8001ff8:	2830      	cmp	r0, #48	; 0x30
 8001ffa:	d04f      	beq.n	800209c <key_to_codepoint+0xf4>
 8001ffc:	f248 0264 	movw	r2, #32868	; 0x8064
 8002000:	4290      	cmp	r0, r2
 8002002:	d04d      	beq.n	80020a0 <key_to_codepoint+0xf8>
 8002004:	f640 0264 	movw	r2, #2148	; 0x864
 8002008:	4290      	cmp	r0, r2
 800200a:	d04b      	beq.n	80020a4 <key_to_codepoint+0xfc>
 800200c:	2864      	cmp	r0, #100	; 0x64
 800200e:	d04d      	beq.n	80020ac <key_to_codepoint+0x104>
 8002010:	f248 022d 	movw	r2, #32813	; 0x802d
 8002014:	4290      	cmp	r0, r2
 8002016:	d04b      	beq.n	80020b0 <key_to_codepoint+0x108>
 8002018:	f640 022d 	movw	r2, #2093	; 0x82d
 800201c:	4290      	cmp	r0, r2
 800201e:	d049      	beq.n	80020b4 <key_to_codepoint+0x10c>
 8002020:	f248 022e 	movw	r2, #32814	; 0x802e
 8002024:	4290      	cmp	r0, r2
 8002026:	d04c      	beq.n	80020c2 <key_to_codepoint+0x11a>
 8002028:	2835      	cmp	r0, #53	; 0x35
 800202a:	d055      	beq.n	80020d8 <key_to_codepoint+0x130>
 800202c:	1f1a      	subs	r2, r3, #4
 800202e:	2a19      	cmp	r2, #25
 8002030:	d81a      	bhi.n	8002068 <key_to_codepoint+0xc0>
 8002032:	f103 025d 	add.w	r2, r3, #93	; 0x5d
 8002036:	b2d2      	uxtb	r2, r2
 8002038:	2a7a      	cmp	r2, #122	; 0x7a
 800203a:	d03d      	beq.n	80020b8 <key_to_codepoint+0x110>
 800203c:	2a79      	cmp	r2, #121	; 0x79
 800203e:	d04d      	beq.n	80020dc <key_to_codepoint+0x134>
 8002040:	0501      	lsls	r1, r0, #20
 8002042:	d540      	bpl.n	80020c6 <key_to_codepoint+0x11e>
 8002044:	2a71      	cmp	r2, #113	; 0x71
 8002046:	d13e      	bne.n	80020c6 <key_to_codepoint+0x11e>
 8002048:	2040      	movs	r0, #64	; 0x40
 800204a:	4770      	bx	lr
 800204c:	202c      	movs	r0, #44	; 0x2c
 800204e:	4770      	bx	lr
 8002050:	2009      	movs	r0, #9
 8002052:	4770      	bx	lr
 8002054:	2008      	movs	r0, #8
 8002056:	4770      	bx	lr
 8002058:	200a      	movs	r0, #10
 800205a:	4770      	bx	lr
 800205c:	2020      	movs	r0, #32
 800205e:	4770      	bx	lr
 8002060:	203b      	movs	r0, #59	; 0x3b
 8002062:	4770      	bx	lr
 8002064:	203a      	movs	r0, #58	; 0x3a
 8002066:	4770      	bx	lr
 8002068:	3b1e      	subs	r3, #30
 800206a:	2b09      	cmp	r3, #9
 800206c:	d81c      	bhi.n	80020a8 <key_to_codepoint+0x100>
 800206e:	0401      	lsls	r1, r0, #16
 8002070:	4a1c      	ldr	r2, [pc, #112]	; (80020e4 <key_to_codepoint+0x13c>)
 8002072:	d435      	bmi.n	80020e0 <key_to_codepoint+0x138>
 8002074:	4413      	add	r3, r2
 8002076:	0502      	lsls	r2, r0, #20
 8002078:	bf4c      	ite	mi
 800207a:	7b18      	ldrbmi	r0, [r3, #12]
 800207c:	7e18      	ldrbpl	r0, [r3, #24]
 800207e:	4770      	bx	lr
 8002080:	202a      	movs	r0, #42	; 0x2a
 8002082:	4770      	bx	lr
 8002084:	202e      	movs	r0, #46	; 0x2e
 8002086:	4770      	bx	lr
 8002088:	205f      	movs	r0, #95	; 0x5f
 800208a:	4770      	bx	lr
 800208c:	202d      	movs	r0, #45	; 0x2d
 800208e:	4770      	bx	lr
 8002090:	2027      	movs	r0, #39	; 0x27
 8002092:	4770      	bx	lr
 8002094:	2023      	movs	r0, #35	; 0x23
 8002096:	4770      	bx	lr
 8002098:	207e      	movs	r0, #126	; 0x7e
 800209a:	4770      	bx	lr
 800209c:	202b      	movs	r0, #43	; 0x2b
 800209e:	4770      	bx	lr
 80020a0:	203e      	movs	r0, #62	; 0x3e
 80020a2:	4770      	bx	lr
 80020a4:	207c      	movs	r0, #124	; 0x7c
 80020a6:	4770      	bx	lr
 80020a8:	2000      	movs	r0, #0
 80020aa:	4770      	bx	lr
 80020ac:	203c      	movs	r0, #60	; 0x3c
 80020ae:	4770      	bx	lr
 80020b0:	203f      	movs	r0, #63	; 0x3f
 80020b2:	4770      	bx	lr
 80020b4:	205c      	movs	r0, #92	; 0x5c
 80020b6:	4770      	bx	lr
 80020b8:	2279      	movs	r2, #121	; 0x79
 80020ba:	0403      	lsls	r3, r0, #16
 80020bc:	d408      	bmi.n	80020d0 <key_to_codepoint+0x128>
 80020be:	4610      	mov	r0, r2
 80020c0:	4770      	bx	lr
 80020c2:	2060      	movs	r0, #96	; 0x60
 80020c4:	4770      	bx	lr
 80020c6:	0400      	lsls	r0, r0, #16
 80020c8:	d5f9      	bpl.n	80020be <key_to_codepoint+0x116>
 80020ca:	3b04      	subs	r3, #4
 80020cc:	2b19      	cmp	r3, #25
 80020ce:	d8f6      	bhi.n	80020be <key_to_codepoint+0x116>
 80020d0:	f1a2 0020 	sub.w	r0, r2, #32
 80020d4:	b2c2      	uxtb	r2, r0
 80020d6:	e7f2      	b.n	80020be <key_to_codepoint+0x116>
 80020d8:	205e      	movs	r0, #94	; 0x5e
 80020da:	4770      	bx	lr
 80020dc:	227a      	movs	r2, #122	; 0x7a
 80020de:	e7ec      	b.n	80020ba <key_to_codepoint+0x112>
 80020e0:	5cd0      	ldrb	r0, [r2, r3]
 80020e2:	4770      	bx	lr
 80020e4:	08003ad0 	.word	0x08003ad0

080020e8 <ps2_init>:
 80020e8:	f7ff bf14 	b.w	8001f14 <ps2_ll_init>

080020ec <ps2_read>:
 80020ec:	4a0d      	ldr	r2, [pc, #52]	; (8002124 <ps2_read+0x38>)
 80020ee:	e9d2 3100 	ldrd	r3, r1, [r2]
 80020f2:	4299      	cmp	r1, r3
 80020f4:	d014      	beq.n	8002120 <ps2_read+0x34>
 80020f6:	b570      	push	{r4, r5, r6, lr}
 80020f8:	4604      	mov	r4, r0
 80020fa:	eb02 0043 	add.w	r0, r2, r3, lsl #1
 80020fe:	1c59      	adds	r1, r3, #1
 8002100:	8905      	ldrh	r5, [r0, #8]
 8002102:	2910      	cmp	r1, #16
 8002104:	4413      	add	r3, r2
 8002106:	bfa8      	it	ge
 8002108:	2100      	movge	r1, #0
 800210a:	4628      	mov	r0, r5
 800210c:	f893 6028 	ldrb.w	r6, [r3, #40]	; 0x28
 8002110:	6011      	str	r1, [r2, #0]
 8002112:	f7ff ff49 	bl	8001fa8 <key_to_codepoint>
 8002116:	71a6      	strb	r6, [r4, #6]
 8002118:	6020      	str	r0, [r4, #0]
 800211a:	80a5      	strh	r5, [r4, #4]
 800211c:	2001      	movs	r0, #1
 800211e:	bd70      	pop	{r4, r5, r6, pc}
 8002120:	2000      	movs	r0, #0
 8002122:	4770      	bx	lr
 8002124:	20000ca0 	.word	0x20000ca0

08002128 <ps2_clock_falling_edge>:
 8002128:	b5f8      	push	{r3, r4, r5, r6, r7, lr}
 800212a:	4cd8      	ldr	r4, [pc, #864]	; (800248c <ps2_clock_falling_edge+0x364>)
 800212c:	6ba3      	ldr	r3, [r4, #56]	; 0x38
 800212e:	b91b      	cbnz	r3, 8002138 <ps2_clock_falling_edge+0x10>
 8002130:	63e3      	str	r3, [r4, #60]	; 0x3c
 8002132:	3301      	adds	r3, #1
 8002134:	63a3      	str	r3, [r4, #56]	; 0x38
 8002136:	bdf8      	pop	{r3, r4, r5, r6, r7, pc}
 8002138:	1e5a      	subs	r2, r3, #1
 800213a:	2a07      	cmp	r2, #7
 800213c:	d905      	bls.n	800214a <ps2_clock_falling_edge+0x22>
 800213e:	2b09      	cmp	r3, #9
 8002140:	d00f      	beq.n	8002162 <ps2_clock_falling_edge+0x3a>
 8002142:	2b0a      	cmp	r3, #10
 8002144:	d1f5      	bne.n	8002132 <ps2_clock_falling_edge+0xa>
 8002146:	2300      	movs	r3, #0
 8002148:	e7f4      	b.n	8002134 <ps2_clock_falling_edge+0xc>
 800214a:	f7ff ff25 	bl	8001f98 <ps2_data_read>
 800214e:	6ba3      	ldr	r3, [r4, #56]	; 0x38
 8002150:	2800      	cmp	r0, #0
 8002152:	d0ee      	beq.n	8002132 <ps2_clock_falling_edge+0xa>
 8002154:	6be1      	ldr	r1, [r4, #60]	; 0x3c
 8002156:	1e58      	subs	r0, r3, #1
 8002158:	2201      	movs	r2, #1
 800215a:	4082      	lsls	r2, r0
 800215c:	430a      	orrs	r2, r1
 800215e:	63e2      	str	r2, [r4, #60]	; 0x3c
 8002160:	e7e7      	b.n	8002132 <ps2_clock_falling_edge+0xa>
 8002162:	e9d4 120f 	ldrd	r1, r2, [r4, #60]	; 0x3c
 8002166:	29f0      	cmp	r1, #240	; 0xf0
 8002168:	f000 820a 	beq.w	8002580 <ps2_clock_falling_edge+0x458>
 800216c:	29e0      	cmp	r1, #224	; 0xe0
 800216e:	d02c      	beq.n	80021ca <ps2_clock_falling_edge+0xa2>
 8002170:	07d7      	lsls	r7, r2, #31
 8002172:	d52e      	bpl.n	80021d2 <ps2_clock_falling_edge+0xaa>
 8002174:	3911      	subs	r1, #17
 8002176:	296c      	cmp	r1, #108	; 0x6c
 8002178:	f022 0201 	bic.w	r2, r2, #1
 800217c:	d821      	bhi.n	80021c2 <ps2_clock_falling_edge+0x9a>
 800217e:	48c4      	ldr	r0, [pc, #784]	; (8002490 <ps2_clock_falling_edge+0x368>)
 8002180:	6422      	str	r2, [r4, #64]	; 0x40
 8002182:	5c41      	ldrb	r1, [r0, r1]
 8002184:	b1e9      	cbz	r1, 80021c2 <ps2_clock_falling_edge+0x9a>
 8002186:	29e2      	cmp	r1, #226	; 0xe2
 8002188:	f040 8202 	bne.w	8002590 <ps2_clock_falling_edge+0x468>
 800218c:	f44f 5580 	mov.w	r5, #4096	; 0x1000
 8002190:	0796      	lsls	r6, r2, #30
 8002192:	6c60      	ldr	r0, [r4, #68]	; 0x44
 8002194:	f140 81f8 	bpl.w	8002588 <ps2_clock_falling_edge+0x460>
 8002198:	ea20 0005 	bic.w	r0, r0, r5
 800219c:	6460      	str	r0, [r4, #68]	; 0x44
 800219e:	4301      	orrs	r1, r0
 80021a0:	2600      	movs	r6, #0
 80021a2:	64a6      	str	r6, [r4, #72]	; 0x48
 80021a4:	e9d4 7500 	ldrd	r7, r5, [r4]
 80021a8:	1c68      	adds	r0, r5, #1
 80021aa:	2810      	cmp	r0, #16
 80021ac:	bfa8      	it	ge
 80021ae:	2000      	movge	r0, #0
 80021b0:	4287      	cmp	r7, r0
 80021b2:	d006      	beq.n	80021c2 <ps2_clock_falling_edge+0x9a>
 80021b4:	eb04 0745 	add.w	r7, r4, r5, lsl #1
 80021b8:	4425      	add	r5, r4
 80021ba:	6060      	str	r0, [r4, #4]
 80021bc:	8139      	strh	r1, [r7, #8]
 80021be:	f885 6028 	strb.w	r6, [r5, #40]	; 0x28
 80021c2:	f022 0202 	bic.w	r2, r2, #2
 80021c6:	6422      	str	r2, [r4, #64]	; 0x40
 80021c8:	e7b3      	b.n	8002132 <ps2_clock_falling_edge+0xa>
 80021ca:	f042 0201 	orr.w	r2, r2, #1
 80021ce:	6422      	str	r2, [r4, #64]	; 0x40
 80021d0:	e7af      	b.n	8002132 <ps2_clock_falling_edge+0xa>
 80021d2:	3901      	subs	r1, #1
 80021d4:	2982      	cmp	r1, #130	; 0x82
 80021d6:	d8f4      	bhi.n	80021c2 <ps2_clock_falling_edge+0x9a>
 80021d8:	a001      	add	r0, pc, #4	; (adr r0, 80021e0 <ps2_clock_falling_edge+0xb8>)
 80021da:	f850 f021 	ldr.w	pc, [r0, r1, lsl #2]
 80021de:	bf00      	nop
 80021e0:	08002549 	.word	0x08002549
 80021e4:	080021c3 	.word	0x080021c3
 80021e8:	08002545 	.word	0x08002545
 80021ec:	08002541 	.word	0x08002541
 80021f0:	0800253d 	.word	0x0800253d
 80021f4:	08002539 	.word	0x08002539
 80021f8:	08002535 	.word	0x08002535
 80021fc:	080021c3 	.word	0x080021c3
 8002200:	08002531 	.word	0x08002531
 8002204:	0800252d 	.word	0x0800252d
 8002208:	08002529 	.word	0x08002529
 800220c:	08002525 	.word	0x08002525
 8002210:	08002521 	.word	0x08002521
 8002214:	0800251d 	.word	0x0800251d
 8002218:	080021c3 	.word	0x080021c3
 800221c:	080021c3 	.word	0x080021c3
 8002220:	08002423 	.word	0x08002423
 8002224:	0800242b 	.word	0x0800242b
 8002228:	080021c3 	.word	0x080021c3
 800222c:	0800244b 	.word	0x0800244b
 8002230:	08002511 	.word	0x08002511
 8002234:	0800247b 	.word	0x0800247b
 8002238:	080021c3 	.word	0x080021c3
 800223c:	080021c3 	.word	0x080021c3
 8002240:	080021c3 	.word	0x080021c3
 8002244:	08002495 	.word	0x08002495
 8002248:	08002487 	.word	0x08002487
 800224c:	08002477 	.word	0x08002477
 8002250:	08002519 	.word	0x08002519
 8002254:	0800241f 	.word	0x0800241f
 8002258:	080021c3 	.word	0x080021c3
 800225c:	080021c3 	.word	0x080021c3
 8002260:	0800247f 	.word	0x0800247f
 8002264:	08002499 	.word	0x08002499
 8002268:	08002473 	.word	0x08002473
 800226c:	0800246f 	.word	0x0800246f
 8002270:	0800246b 	.word	0x0800246b
 8002274:	08002467 	.word	0x08002467
 8002278:	080021c3 	.word	0x080021c3
 800227c:	080021c3 	.word	0x080021c3
 8002280:	080024a9 	.word	0x080024a9
 8002284:	080024a5 	.word	0x080024a5
 8002288:	080024a1 	.word	0x080024a1
 800228c:	0800249d 	.word	0x0800249d
 8002290:	08002483 	.word	0x08002483
 8002294:	08002463 	.word	0x08002463
 8002298:	080021c3 	.word	0x080021c3
 800229c:	080021c3 	.word	0x080021c3
 80022a0:	080024d9 	.word	0x080024d9
 80022a4:	0800245f 	.word	0x0800245f
 80022a8:	080024d1 	.word	0x080024d1
 80022ac:	080024cd 	.word	0x080024cd
 80022b0:	080024d5 	.word	0x080024d5
 80022b4:	0800245b 	.word	0x0800245b
 80022b8:	080021c3 	.word	0x080021c3
 80022bc:	080021c3 	.word	0x080021c3
 80022c0:	080021c3 	.word	0x080021c3
 80022c4:	080024f9 	.word	0x080024f9
 80022c8:	080024f5 	.word	0x080024f5
 80022cc:	080024f1 	.word	0x080024f1
 80022d0:	08002457 	.word	0x08002457
 80022d4:	08002453 	.word	0x08002453
 80022d8:	080021c3 	.word	0x080021c3
 80022dc:	080021c3 	.word	0x080021c3
 80022e0:	080024ed 	.word	0x080024ed
 80022e4:	08002509 	.word	0x08002509
 80022e8:	08002505 	.word	0x08002505
 80022ec:	0800250d 	.word	0x0800250d
 80022f0:	08002447 	.word	0x08002447
 80022f4:	08002443 	.word	0x08002443
 80022f8:	080021c3 	.word	0x080021c3
 80022fc:	080021c3 	.word	0x080021c3
 8002300:	08002501 	.word	0x08002501
 8002304:	080024e9 	.word	0x080024e9
 8002308:	080024e5 	.word	0x080024e5
 800230c:	0800243f 	.word	0x0800243f
 8002310:	080024fd 	.word	0x080024fd
 8002314:	080024b1 	.word	0x080024b1
 8002318:	080021c3 	.word	0x080021c3
 800231c:	080021c3 	.word	0x080021c3
 8002320:	080021c3 	.word	0x080021c3
 8002324:	0800243b 	.word	0x0800243b
 8002328:	080021c3 	.word	0x080021c3
 800232c:	080024b9 	.word	0x080024b9
 8002330:	080024b5 	.word	0x080024b5
 8002334:	080021c3 	.word	0x080021c3
 8002338:	080021c3 	.word	0x080021c3
 800233c:	080024ad 	.word	0x080024ad
 8002340:	08002433 	.word	0x08002433
 8002344:	080024e1 	.word	0x080024e1
 8002348:	080024dd 	.word	0x080024dd
 800234c:	080021c3 	.word	0x080021c3
 8002350:	080024c9 	.word	0x080024c9
 8002354:	080021c3 	.word	0x080021c3
 8002358:	080021c3 	.word	0x080021c3
 800235c:	080021c3 	.word	0x080021c3
 8002360:	080024c5 	.word	0x080024c5
 8002364:	080021c3 	.word	0x080021c3
 8002368:	080021c3 	.word	0x080021c3
 800236c:	080021c3 	.word	0x080021c3
 8002370:	080021c3 	.word	0x080021c3
 8002374:	08002515 	.word	0x08002515
 8002378:	080021c3 	.word	0x080021c3
 800237c:	080021c3 	.word	0x080021c3
 8002380:	08002409 	.word	0x08002409
 8002384:	080021c3 	.word	0x080021c3
 8002388:	080024c1 	.word	0x080024c1
 800238c:	080024bd 	.word	0x080024bd
 8002390:	080021c3 	.word	0x080021c3
 8002394:	080021c3 	.word	0x080021c3
 8002398:	080021c3 	.word	0x080021c3
 800239c:	080023ed 	.word	0x080023ed
 80023a0:	0800257d 	.word	0x0800257d
 80023a4:	08002579 	.word	0x08002579
 80023a8:	08002575 	.word	0x08002575
 80023ac:	08002571 	.word	0x08002571
 80023b0:	0800256d 	.word	0x0800256d
 80023b4:	08002569 	.word	0x08002569
 80023b8:	080021c3 	.word	0x080021c3
 80023bc:	08002565 	.word	0x08002565
 80023c0:	08002561 	.word	0x08002561
 80023c4:	0800255d 	.word	0x0800255d
 80023c8:	08002559 	.word	0x08002559
 80023cc:	08002555 	.word	0x08002555
 80023d0:	08002551 	.word	0x08002551
 80023d4:	080021c3 	.word	0x080021c3
 80023d8:	080021c3 	.word	0x080021c3
 80023dc:	080021c3 	.word	0x080021c3
 80023e0:	080021c3 	.word	0x080021c3
 80023e4:	080021c3 	.word	0x080021c3
 80023e8:	0800254d 	.word	0x0800254d
 80023ec:	2162      	movs	r1, #98	; 0x62
 80023ee:	e9d4 2010 	ldrd	r2, r0, [r4, #64]	; 0x40
 80023f2:	4301      	orrs	r1, r0
 80023f4:	0790      	lsls	r0, r2, #30
 80023f6:	f53f aed3 	bmi.w	80021a0 <ps2_clock_falling_edge+0x78>
 80023fa:	6ca0      	ldr	r0, [r4, #72]	; 0x48
 80023fc:	4288      	cmp	r0, r1
 80023fe:	bf1a      	itte	ne
 8002400:	64a1      	strne	r1, [r4, #72]	; 0x48
 8002402:	2601      	movne	r6, #1
 8002404:	2602      	moveq	r6, #2
 8002406:	e6cd      	b.n	80021a4 <ps2_clock_falling_edge+0x7c>
 8002408:	2159      	movs	r1, #89	; 0x59
 800240a:	29e4      	cmp	r1, #228	; 0xe4
 800240c:	6c22      	ldr	r2, [r4, #64]	; 0x40
 800240e:	f000 80ce 	beq.w	80025ae <ps2_clock_falling_edge+0x486>
 8002412:	29e3      	cmp	r1, #227	; 0xe3
 8002414:	f040 80ce 	bne.w	80025b4 <ps2_clock_falling_edge+0x48c>
 8002418:	f44f 5500 	mov.w	r5, #8192	; 0x2000
 800241c:	e6b8      	b.n	8002190 <ps2_clock_falling_edge+0x68>
 800241e:	211f      	movs	r1, #31
 8002420:	e7e5      	b.n	80023ee <ps2_clock_falling_edge+0x2c6>
 8002422:	21e2      	movs	r1, #226	; 0xe2
 8002424:	f44f 5580 	mov.w	r5, #4096	; 0x1000
 8002428:	e6b2      	b.n	8002190 <ps2_clock_falling_edge+0x68>
 800242a:	21e1      	movs	r1, #225	; 0xe1
 800242c:	f44f 4500 	mov.w	r5, #32768	; 0x8000
 8002430:	e6ae      	b.n	8002190 <ps2_clock_falling_edge+0x68>
 8002432:	21e5      	movs	r1, #229	; 0xe5
 8002434:	f44f 4500 	mov.w	r5, #32768	; 0x8000
 8002438:	e6aa      	b.n	8002190 <ps2_clock_falling_edge+0x68>
 800243a:	2134      	movs	r1, #52	; 0x34
 800243c:	e7d7      	b.n	80023ee <ps2_clock_falling_edge+0x2c6>
 800243e:	2133      	movs	r1, #51	; 0x33
 8002440:	e7d5      	b.n	80023ee <ps2_clock_falling_edge+0x2c6>
 8002442:	2126      	movs	r1, #38	; 0x26
 8002444:	e7d3      	b.n	80023ee <ps2_clock_falling_edge+0x2c6>
 8002446:	2127      	movs	r1, #39	; 0x27
 8002448:	e7d1      	b.n	80023ee <ps2_clock_falling_edge+0x2c6>
 800244a:	21e0      	movs	r1, #224	; 0xe0
 800244c:	f44f 4580 	mov.w	r5, #16384	; 0x4000
 8002450:	e69e      	b.n	8002190 <ps2_clock_falling_edge+0x68>
 8002452:	2125      	movs	r1, #37	; 0x25
 8002454:	e7cb      	b.n	80023ee <ps2_clock_falling_edge+0x2c6>
 8002456:	2124      	movs	r1, #36	; 0x24
 8002458:	e7c9      	b.n	80023ee <ps2_clock_falling_edge+0x2c6>
 800245a:	2123      	movs	r1, #35	; 0x23
 800245c:	e7c7      	b.n	80023ee <ps2_clock_falling_edge+0x2c6>
 800245e:	2105      	movs	r1, #5
 8002460:	e7c5      	b.n	80023ee <ps2_clock_falling_edge+0x2c6>
 8002462:	2122      	movs	r1, #34	; 0x22
 8002464:	e7c3      	b.n	80023ee <ps2_clock_falling_edge+0x2c6>
 8002466:	2120      	movs	r1, #32
 8002468:	e7c1      	b.n	80023ee <ps2_clock_falling_edge+0x2c6>
 800246a:	2121      	movs	r1, #33	; 0x21
 800246c:	e7bf      	b.n	80023ee <ps2_clock_falling_edge+0x2c6>
 800246e:	2108      	movs	r1, #8
 8002470:	e7bd      	b.n	80023ee <ps2_clock_falling_edge+0x2c6>
 8002472:	2107      	movs	r1, #7
 8002474:	e7bb      	b.n	80023ee <ps2_clock_falling_edge+0x2c6>
 8002476:	2104      	movs	r1, #4
 8002478:	e7b9      	b.n	80023ee <ps2_clock_falling_edge+0x2c6>
 800247a:	211e      	movs	r1, #30
 800247c:	e7b7      	b.n	80023ee <ps2_clock_falling_edge+0x2c6>
 800247e:	2106      	movs	r1, #6
 8002480:	e7b5      	b.n	80023ee <ps2_clock_falling_edge+0x2c6>
 8002482:	2115      	movs	r1, #21
 8002484:	e7b3      	b.n	80023ee <ps2_clock_falling_edge+0x2c6>
 8002486:	2116      	movs	r1, #22
 8002488:	e7b1      	b.n	80023ee <ps2_clock_falling_edge+0x2c6>
 800248a:	bf00      	nop
 800248c:	20000ca0 	.word	0x20000ca0
 8002490:	08003af4 	.word	0x08003af4
 8002494:	211d      	movs	r1, #29
 8002496:	e7aa      	b.n	80023ee <ps2_clock_falling_edge+0x2c6>
 8002498:	211b      	movs	r1, #27
 800249a:	e7a8      	b.n	80023ee <ps2_clock_falling_edge+0x2c6>
 800249c:	2117      	movs	r1, #23
 800249e:	e7a6      	b.n	80023ee <ps2_clock_falling_edge+0x2c6>
 80024a0:	2109      	movs	r1, #9
 80024a2:	e7a4      	b.n	80023ee <ps2_clock_falling_edge+0x2c6>
 80024a4:	2119      	movs	r1, #25
 80024a6:	e7a2      	b.n	80023ee <ps2_clock_falling_edge+0x2c6>
 80024a8:	212c      	movs	r1, #44	; 0x2c
 80024aa:	e7a0      	b.n	80023ee <ps2_clock_falling_edge+0x2c6>
 80024ac:	2139      	movs	r1, #57	; 0x39
 80024ae:	e79e      	b.n	80023ee <ps2_clock_falling_edge+0x2c6>
 80024b0:	212d      	movs	r1, #45	; 0x2d
 80024b2:	e79c      	b.n	80023ee <ps2_clock_falling_edge+0x2c6>
 80024b4:	212e      	movs	r1, #46	; 0x2e
 80024b6:	e79a      	b.n	80023ee <ps2_clock_falling_edge+0x2c6>
 80024b8:	212f      	movs	r1, #47	; 0x2f
 80024ba:	e798      	b.n	80023ee <ps2_clock_falling_edge+0x2c6>
 80024bc:	215f      	movs	r1, #95	; 0x5f
 80024be:	e796      	b.n	80023ee <ps2_clock_falling_edge+0x2c6>
 80024c0:	215c      	movs	r1, #92	; 0x5c
 80024c2:	e794      	b.n	80023ee <ps2_clock_falling_edge+0x2c6>
 80024c4:	2164      	movs	r1, #100	; 0x64
 80024c6:	e792      	b.n	80023ee <ps2_clock_falling_edge+0x2c6>
 80024c8:	2131      	movs	r1, #49	; 0x31
 80024ca:	e790      	b.n	80023ee <ps2_clock_falling_edge+0x2c6>
 80024cc:	210a      	movs	r1, #10
 80024ce:	e78e      	b.n	80023ee <ps2_clock_falling_edge+0x2c6>
 80024d0:	210b      	movs	r1, #11
 80024d2:	e78c      	b.n	80023ee <ps2_clock_falling_edge+0x2c6>
 80024d4:	211c      	movs	r1, #28
 80024d6:	e78a      	b.n	80023ee <ps2_clock_falling_edge+0x2c6>
 80024d8:	2111      	movs	r1, #17
 80024da:	e788      	b.n	80023ee <ps2_clock_falling_edge+0x2c6>
 80024dc:	2130      	movs	r1, #48	; 0x30
 80024de:	e786      	b.n	80023ee <ps2_clock_falling_edge+0x2c6>
 80024e0:	2128      	movs	r1, #40	; 0x28
 80024e2:	e784      	b.n	80023ee <ps2_clock_falling_edge+0x2c6>
 80024e4:	210f      	movs	r1, #15
 80024e6:	e782      	b.n	80023ee <ps2_clock_falling_edge+0x2c6>
 80024e8:	2138      	movs	r1, #56	; 0x38
 80024ea:	e780      	b.n	80023ee <ps2_clock_falling_edge+0x2c6>
 80024ec:	2136      	movs	r1, #54	; 0x36
 80024ee:	e77e      	b.n	80023ee <ps2_clock_falling_edge+0x2c6>
 80024f0:	2118      	movs	r1, #24
 80024f2:	e77c      	b.n	80023ee <ps2_clock_falling_edge+0x2c6>
 80024f4:	210d      	movs	r1, #13
 80024f6:	e77a      	b.n	80023ee <ps2_clock_falling_edge+0x2c6>
 80024f8:	2110      	movs	r1, #16
 80024fa:	e778      	b.n	80023ee <ps2_clock_falling_edge+0x2c6>
 80024fc:	2113      	movs	r1, #19
 80024fe:	e776      	b.n	80023ee <ps2_clock_falling_edge+0x2c6>
 8002500:	2137      	movs	r1, #55	; 0x37
 8002502:	e774      	b.n	80023ee <ps2_clock_falling_edge+0x2c6>
 8002504:	210c      	movs	r1, #12
 8002506:	e772      	b.n	80023ee <ps2_clock_falling_edge+0x2c6>
 8002508:	210e      	movs	r1, #14
 800250a:	e770      	b.n	80023ee <ps2_clock_falling_edge+0x2c6>
 800250c:	2112      	movs	r1, #18
 800250e:	e76e      	b.n	80023ee <ps2_clock_falling_edge+0x2c6>
 8002510:	2114      	movs	r1, #20
 8002512:	e76c      	b.n	80023ee <ps2_clock_falling_edge+0x2c6>
 8002514:	212a      	movs	r1, #42	; 0x2a
 8002516:	e76a      	b.n	80023ee <ps2_clock_falling_edge+0x2c6>
 8002518:	211a      	movs	r1, #26
 800251a:	e768      	b.n	80023ee <ps2_clock_falling_edge+0x2c6>
 800251c:	2135      	movs	r1, #53	; 0x35
 800251e:	e766      	b.n	80023ee <ps2_clock_falling_edge+0x2c6>
 8002520:	212b      	movs	r1, #43	; 0x2b
 8002522:	e764      	b.n	80023ee <ps2_clock_falling_edge+0x2c6>
 8002524:	213d      	movs	r1, #61	; 0x3d
 8002526:	e762      	b.n	80023ee <ps2_clock_falling_edge+0x2c6>
 8002528:	213f      	movs	r1, #63	; 0x3f
 800252a:	e760      	b.n	80023ee <ps2_clock_falling_edge+0x2c6>
 800252c:	2141      	movs	r1, #65	; 0x41
 800252e:	e75e      	b.n	80023ee <ps2_clock_falling_edge+0x2c6>
 8002530:	2143      	movs	r1, #67	; 0x43
 8002532:	e75c      	b.n	80023ee <ps2_clock_falling_edge+0x2c6>
 8002534:	2145      	movs	r1, #69	; 0x45
 8002536:	e75a      	b.n	80023ee <ps2_clock_falling_edge+0x2c6>
 8002538:	213b      	movs	r1, #59	; 0x3b
 800253a:	e758      	b.n	80023ee <ps2_clock_falling_edge+0x2c6>
 800253c:	213a      	movs	r1, #58	; 0x3a
 800253e:	e756      	b.n	80023ee <ps2_clock_falling_edge+0x2c6>
 8002540:	213c      	movs	r1, #60	; 0x3c
 8002542:	e754      	b.n	80023ee <ps2_clock_falling_edge+0x2c6>
 8002544:	213e      	movs	r1, #62	; 0x3e
 8002546:	e752      	b.n	80023ee <ps2_clock_falling_edge+0x2c6>
 8002548:	2142      	movs	r1, #66	; 0x42
 800254a:	e750      	b.n	80023ee <ps2_clock_falling_edge+0x2c6>
 800254c:	2140      	movs	r1, #64	; 0x40
 800254e:	e74e      	b.n	80023ee <ps2_clock_falling_edge+0x2c6>
 8002550:	2161      	movs	r1, #97	; 0x61
 8002552:	e74c      	b.n	80023ee <ps2_clock_falling_edge+0x2c6>
 8002554:	2155      	movs	r1, #85	; 0x55
 8002556:	e74a      	b.n	80023ee <ps2_clock_falling_edge+0x2c6>
 8002558:	2156      	movs	r1, #86	; 0x56
 800255a:	e748      	b.n	80023ee <ps2_clock_falling_edge+0x2c6>
 800255c:	215b      	movs	r1, #91	; 0x5b
 800255e:	e746      	b.n	80023ee <ps2_clock_falling_edge+0x2c6>
 8002560:	2157      	movs	r1, #87	; 0x57
 8002562:	e744      	b.n	80023ee <ps2_clock_falling_edge+0x2c6>
 8002564:	2144      	movs	r1, #68	; 0x44
 8002566:	e742      	b.n	80023ee <ps2_clock_falling_edge+0x2c6>
 8002568:	2129      	movs	r1, #41	; 0x29
 800256a:	e740      	b.n	80023ee <ps2_clock_falling_edge+0x2c6>
 800256c:	2160      	movs	r1, #96	; 0x60
 800256e:	e73e      	b.n	80023ee <ps2_clock_falling_edge+0x2c6>
 8002570:	215e      	movs	r1, #94	; 0x5e
 8002572:	e73c      	b.n	80023ee <ps2_clock_falling_edge+0x2c6>
 8002574:	215d      	movs	r1, #93	; 0x5d
 8002576:	e73a      	b.n	80023ee <ps2_clock_falling_edge+0x2c6>
 8002578:	215a      	movs	r1, #90	; 0x5a
 800257a:	e738      	b.n	80023ee <ps2_clock_falling_edge+0x2c6>
 800257c:	2163      	movs	r1, #99	; 0x63
 800257e:	e736      	b.n	80023ee <ps2_clock_falling_edge+0x2c6>
 8002580:	f042 0202 	orr.w	r2, r2, #2
 8002584:	6422      	str	r2, [r4, #64]	; 0x40
 8002586:	e5d4      	b.n	8002132 <ps2_clock_falling_edge+0xa>
 8002588:	4328      	orrs	r0, r5
 800258a:	6460      	str	r0, [r4, #68]	; 0x44
 800258c:	4301      	orrs	r1, r0
 800258e:	e734      	b.n	80023fa <ps2_clock_falling_edge+0x2d2>
 8002590:	29e6      	cmp	r1, #230	; 0xe6
 8002592:	d102      	bne.n	800259a <ps2_clock_falling_edge+0x472>
 8002594:	f44f 6500 	mov.w	r5, #2048	; 0x800
 8002598:	e5fa      	b.n	8002190 <ps2_clock_falling_edge+0x68>
 800259a:	29e1      	cmp	r1, #225	; 0xe1
 800259c:	d001      	beq.n	80025a2 <ps2_clock_falling_edge+0x47a>
 800259e:	29e5      	cmp	r1, #229	; 0xe5
 80025a0:	d102      	bne.n	80025a8 <ps2_clock_falling_edge+0x480>
 80025a2:	f44f 4500 	mov.w	r5, #32768	; 0x8000
 80025a6:	e5f3      	b.n	8002190 <ps2_clock_falling_edge+0x68>
 80025a8:	29e0      	cmp	r1, #224	; 0xe0
 80025aa:	f47f af2e 	bne.w	800240a <ps2_clock_falling_edge+0x2e2>
 80025ae:	f44f 4580 	mov.w	r5, #16384	; 0x4000
 80025b2:	e5ed      	b.n	8002190 <ps2_clock_falling_edge+0x68>
 80025b4:	29e7      	cmp	r1, #231	; 0xe7
 80025b6:	f43f af2f 	beq.w	8002418 <ps2_clock_falling_edge+0x2f0>
 80025ba:	e718      	b.n	80023ee <ps2_clock_falling_edge+0x2c6>

080025bc <font_char>:
 80025bc:	e92d 4ff0 	stmdb	sp!, {r4, r5, r6, r7, r8, r9, sl, fp, lr}
 80025c0:	b083      	sub	sp, #12
 80025c2:	e9dd 740c 	ldrd	r7, r4, [sp, #48]	; 0x30
 80025c6:	f1a2 0520 	sub.w	r5, r2, #32
 80025ca:	2d5e      	cmp	r5, #94	; 0x5e
 80025cc:	461e      	mov	r6, r3
 80025ce:	e9d4 2300 	ldrd	r2, r3, [r4]
 80025d2:	bf88      	it	hi
 80025d4:	255f      	movhi	r5, #95	; 0x5f
 80025d6:	f000 faab 	bl	8002b30 <lcd_window_start>
 80025da:	e9d4 3200 	ldrd	r3, r2, [r4]
 80025de:	f103 0b07 	add.w	fp, r3, #7
 80025e2:	ea4f 00eb 	mov.w	r0, fp, asr #3
 80025e6:	fb05 f502 	mul.w	r5, r5, r2
 80025ea:	2a00      	cmp	r2, #0
 80025ec:	68a1      	ldr	r1, [r4, #8]
 80025ee:	9000      	str	r0, [sp, #0]
 80025f0:	fb00 f505 	mul.w	r5, r0, r5
 80025f4:	dd28      	ble.n	8002648 <font_char+0x8c>
 80025f6:	f04f 0a00 	mov.w	sl, #0
 80025fa:	4429      	add	r1, r5
 80025fc:	9101      	str	r1, [sp, #4]
 80025fe:	46d1      	mov	r9, sl
 8002600:	f04f 0801 	mov.w	r8, #1
 8002604:	2b00      	cmp	r3, #0
 8002606:	dd19      	ble.n	800263c <font_char+0x80>
 8002608:	9b01      	ldr	r3, [sp, #4]
 800260a:	f04f 0b00 	mov.w	fp, #0
 800260e:	eb03 050a 	add.w	r5, r3, sl
 8002612:	ea4f 01eb 	mov.w	r1, fp, asr #3
 8002616:	ea6f 030b 	mvn.w	r3, fp
 800261a:	5c69      	ldrb	r1, [r5, r1]
 800261c:	f003 0307 	and.w	r3, r3, #7
 8002620:	fa08 f303 	lsl.w	r3, r8, r3
 8002624:	4219      	tst	r1, r3
 8002626:	bf14      	ite	ne
 8002628:	4630      	movne	r0, r6
 800262a:	4638      	moveq	r0, r7
 800262c:	f000 fa36 	bl	8002a9c <lcd_emit>
 8002630:	6823      	ldr	r3, [r4, #0]
 8002632:	f10b 0b01 	add.w	fp, fp, #1
 8002636:	455b      	cmp	r3, fp
 8002638:	dceb      	bgt.n	8002612 <font_char+0x56>
 800263a:	6862      	ldr	r2, [r4, #4]
 800263c:	9900      	ldr	r1, [sp, #0]
 800263e:	f109 0901 	add.w	r9, r9, #1
 8002642:	454a      	cmp	r2, r9
 8002644:	448a      	add	sl, r1
 8002646:	dcdd      	bgt.n	8002604 <font_char+0x48>
 8002648:	b003      	add	sp, #12
 800264a:	e8bd 4ff0 	ldmia.w	sp!, {r4, r5, r6, r7, r8, r9, sl, fp, lr}
 800264e:	f000 baa7 	b.w	8002ba0 <lcd_window_end>
 8002652:	bf00      	nop

08002654 <font_str>:
 8002654:	e92d 43f0 	stmdb	sp!, {r4, r5, r6, r7, r8, r9, lr}
 8002658:	4615      	mov	r5, r2
 800265a:	b083      	sub	sp, #12
 800265c:	f815 2b01 	ldrb.w	r2, [r5], #1
 8002660:	e9dd 960a 	ldrd	r9, r6, [sp, #40]	; 0x28
 8002664:	b17a      	cbz	r2, 8002686 <font_str+0x32>
 8002666:	4604      	mov	r4, r0
 8002668:	4688      	mov	r8, r1
 800266a:	461f      	mov	r7, r3
 800266c:	463b      	mov	r3, r7
 800266e:	4620      	mov	r0, r4
 8002670:	e9cd 9600 	strd	r9, r6, [sp]
 8002674:	4641      	mov	r1, r8
 8002676:	f7ff ffa1 	bl	80025bc <font_char>
 800267a:	6833      	ldr	r3, [r6, #0]
 800267c:	f815 2b01 	ldrb.w	r2, [r5], #1
 8002680:	441c      	add	r4, r3
 8002682:	2a00      	cmp	r2, #0
 8002684:	d1f2      	bne.n	800266c <font_str+0x18>
 8002686:	b003      	add	sp, #12
 8002688:	e8bd 83f0 	ldmia.w	sp!, {r4, r5, r6, r7, r8, r9, pc}

0800268c <timer_init>:
 800268c:	b430      	push	{r4, r5}
 800268e:	4809      	ldr	r0, [pc, #36]	; (80026b4 <timer_init+0x28>)
 8002690:	6c01      	ldr	r1, [r0, #64]	; 0x40
 8002692:	f04f 4380 	mov.w	r3, #1073741824	; 0x40000000
 8002696:	2200      	movs	r2, #0
 8002698:	f04f 35ff 	mov.w	r5, #4294967295	; 0xffffffff
 800269c:	2401      	movs	r4, #1
 800269e:	f041 0101 	orr.w	r1, r1, #1
 80026a2:	6401      	str	r1, [r0, #64]	; 0x40
 80026a4:	601a      	str	r2, [r3, #0]
 80026a6:	605a      	str	r2, [r3, #4]
 80026a8:	629a      	str	r2, [r3, #40]	; 0x28
 80026aa:	62dd      	str	r5, [r3, #44]	; 0x2c
 80026ac:	60da      	str	r2, [r3, #12]
 80026ae:	601c      	str	r4, [r3, #0]
 80026b0:	bc30      	pop	{r4, r5}
 80026b2:	4770      	bx	lr
 80026b4:	40023800 	.word	0x40023800

080026b8 <timer_delta_str>:
 80026b8:	b470      	push	{r4, r5, r6}
 80026ba:	4c1f      	ldr	r4, [pc, #124]	; (8002738 <timer_delta_str+0x80>)
 80026bc:	4d1f      	ldr	r5, [pc, #124]	; (800273c <timer_delta_str+0x84>)
 80026be:	4e20      	ldr	r6, [pc, #128]	; (8002740 <timer_delta_str+0x88>)
 80026c0:	4b20      	ldr	r3, [pc, #128]	; (8002744 <timer_delta_str+0x8c>)
 80026c2:	09ca      	lsrs	r2, r1, #7
 80026c4:	fba4 4202 	umull	r4, r2, r4, r2
 80026c8:	0ad2      	lsrs	r2, r2, #11
 80026ca:	fb05 1512 	mls	r5, r5, r2, r1
 80026ce:	092c      	lsrs	r4, r5, #4
 80026d0:	fba6 6404 	umull	r6, r4, r6, r4
 80026d4:	4299      	cmp	r1, r3
 80026d6:	ea4f 14d4 	mov.w	r4, r4, lsr #7
 80026da:	d823      	bhi.n	8002724 <timer_delta_str+0x6c>
 80026dc:	491a      	ldr	r1, [pc, #104]	; (8002748 <timer_delta_str+0x90>)
 80026de:	4e1b      	ldr	r6, [pc, #108]	; (800274c <timer_delta_str+0x94>)
 80026e0:	4b1b      	ldr	r3, [pc, #108]	; (8002750 <timer_delta_str+0x98>)
 80026e2:	fb01 5114 	mls	r1, r1, r4, r5
 80026e6:	084a      	lsrs	r2, r1, #1
 80026e8:	fba6 c202 	umull	ip, r2, r6, r2
 80026ec:	429d      	cmp	r5, r3
 80026ee:	ea4f 1252 	mov.w	r2, r2, lsr #5
 80026f2:	d811      	bhi.n	8002718 <timer_delta_str+0x60>
 80026f4:	235a      	movs	r3, #90	; 0x5a
 80026f6:	fb03 1412 	mls	r4, r3, r2, r1
 80026fa:	f44f 737a 	mov.w	r3, #1000	; 0x3e8
 80026fe:	fb03 f304 	mul.w	r3, r3, r4
 8002702:	085b      	lsrs	r3, r3, #1
 8002704:	fba6 4303 	umull	r4, r3, r6, r3
 8002708:	2959      	cmp	r1, #89	; 0x59
 800270a:	ea4f 1353 	mov.w	r3, r3, lsr #5
 800270e:	d90e      	bls.n	800272e <timer_delta_str+0x76>
 8002710:	4910      	ldr	r1, [pc, #64]	; (8002754 <timer_delta_str+0x9c>)
 8002712:	bc70      	pop	{r4, r5, r6}
 8002714:	f000 bfa2 	b.w	800365c <sprintf>
 8002718:	4613      	mov	r3, r2
 800271a:	490f      	ldr	r1, [pc, #60]	; (8002758 <timer_delta_str+0xa0>)
 800271c:	4622      	mov	r2, r4
 800271e:	bc70      	pop	{r4, r5, r6}
 8002720:	f000 bf9c 	b.w	800365c <sprintf>
 8002724:	4623      	mov	r3, r4
 8002726:	490d      	ldr	r1, [pc, #52]	; (800275c <timer_delta_str+0xa4>)
 8002728:	bc70      	pop	{r4, r5, r6}
 800272a:	f000 bf97 	b.w	800365c <sprintf>
 800272e:	461a      	mov	r2, r3
 8002730:	490b      	ldr	r1, [pc, #44]	; (8002760 <timer_delta_str+0xa8>)
 8002732:	bc70      	pop	{r4, r5, r6}
 8002734:	f000 bf92 	b.w	800365c <sprintf>
 8002738:	00bee32f 	.word	0x00bee32f
 800273c:	055d4a80 	.word	0x055d4a80
 8002740:	05d34edf 	.word	0x05d34edf
 8002744:	055d4a7f 	.word	0x055d4a7f
 8002748:	00015f90 	.word	0x00015f90
 800274c:	b60b60b7 	.word	0xb60b60b7
 8002750:	00015f8f 	.word	0x00015f8f
 8002754:	08003b7c 	.word	0x08003b7c
 8002758:	08003b70 	.word	0x08003b70
 800275c:	08003b64 	.word	0x08003b64
 8002760:	08003b88 	.word	0x08003b88

08002764 <its_board_init>:
 8002764:	4a9a      	ldr	r2, [pc, #616]	; (80029d0 <its_board_init+0x26c>)
 8002766:	4b9b      	ldr	r3, [pc, #620]	; (80029d4 <its_board_init+0x270>)
 8002768:	f8d2 1088 	ldr.w	r1, [r2, #136]	; 0x88
 800276c:	f441 0170 	orr.w	r1, r1, #15728640	; 0xf00000
 8002770:	b5f0      	push	{r4, r5, r6, r7, lr}
 8002772:	f8c2 1088 	str.w	r1, [r2, #136]	; 0x88
 8002776:	6819      	ldr	r1, [r3, #0]
 8002778:	4d97      	ldr	r5, [pc, #604]	; (80029d8 <its_board_init+0x274>)
 800277a:	4c98      	ldr	r4, [pc, #608]	; (80029dc <its_board_init+0x278>)
 800277c:	2000      	movs	r0, #0
 800277e:	f041 0101 	orr.w	r1, r1, #1
 8002782:	6019      	str	r1, [r3, #0]
 8002784:	6098      	str	r0, [r3, #8]
 8002786:	6819      	ldr	r1, [r3, #0]
 8002788:	f021 7184 	bic.w	r1, r1, #17301504	; 0x1080000
 800278c:	f421 3180 	bic.w	r1, r1, #65536	; 0x10000
 8002790:	6019      	str	r1, [r3, #0]
 8002792:	605d      	str	r5, [r3, #4]
 8002794:	681d      	ldr	r5, [r3, #0]
 8002796:	4992      	ldr	r1, [pc, #584]	; (80029e0 <its_board_init+0x27c>)
 8002798:	f425 2580 	bic.w	r5, r5, #262144	; 0x40000
 800279c:	601d      	str	r5, [r3, #0]
 800279e:	f04f 6500 	mov.w	r5, #134217728	; 0x8000000
 80027a2:	60d8      	str	r0, [r3, #12]
 80027a4:	6095      	str	r5, [r2, #8]
 80027a6:	6825      	ldr	r5, [r4, #0]
 80027a8:	f445 7500 	orr.w	r5, r5, #512	; 0x200
 80027ac:	6025      	str	r5, [r4, #0]
 80027ae:	6825      	ldr	r5, [r4, #0]
 80027b0:	f445 7580 	orr.w	r5, r5, #256	; 0x100
 80027b4:	6025      	str	r5, [r4, #0]
 80027b6:	68d4      	ldr	r4, [r2, #12]
 80027b8:	f64f 05ff 	movw	r5, #63743	; 0xf8ff
 80027bc:	b089      	sub	sp, #36	; 0x24
 80027be:	402c      	ands	r4, r5
 80027c0:	4321      	orrs	r1, r4
 80027c2:	60d1      	str	r1, [r2, #12]
 80027c4:	9001      	str	r0, [sp, #4]
 80027c6:	6c19      	ldr	r1, [r3, #64]	; 0x40
 80027c8:	4a86      	ldr	r2, [pc, #536]	; (80029e4 <its_board_init+0x280>)
 80027ca:	f041 5180 	orr.w	r1, r1, #268435456	; 0x10000000
 80027ce:	6419      	str	r1, [r3, #64]	; 0x40
 80027d0:	6c19      	ldr	r1, [r3, #64]	; 0x40
 80027d2:	f001 5180 	and.w	r1, r1, #268435456	; 0x10000000
 80027d6:	9101      	str	r1, [sp, #4]
 80027d8:	9901      	ldr	r1, [sp, #4]
 80027da:	9002      	str	r0, [sp, #8]
 80027dc:	6811      	ldr	r1, [r2, #0]
 80027de:	f441 4140 	orr.w	r1, r1, #49152	; 0xc000
 80027e2:	6011      	str	r1, [r2, #0]
 80027e4:	6812      	ldr	r2, [r2, #0]
 80027e6:	f402 4240 	and.w	r2, r2, #49152	; 0xc000
 80027ea:	9202      	str	r2, [sp, #8]
 80027ec:	9a02      	ldr	r2, [sp, #8]
 80027ee:	689a      	ldr	r2, [r3, #8]
 80027f0:	f002 020c 	and.w	r2, r2, #12
 80027f4:	2a04      	cmp	r2, #4
 80027f6:	f000 80e7 	beq.w	80029c8 <its_board_init+0x264>
 80027fa:	689a      	ldr	r2, [r3, #8]
 80027fc:	f002 020c 	and.w	r2, r2, #12
 8002800:	2a08      	cmp	r2, #8
 8002802:	f000 80dd 	beq.w	80029c0 <its_board_init+0x25c>
 8002806:	4b73      	ldr	r3, [pc, #460]	; (80029d4 <its_board_init+0x270>)
 8002808:	681a      	ldr	r2, [r3, #0]
 800280a:	f442 2280 	orr.w	r2, r2, #262144	; 0x40000
 800280e:	601a      	str	r2, [r3, #0]
 8002810:	681a      	ldr	r2, [r3, #0]
 8002812:	f442 3280 	orr.w	r2, r2, #65536	; 0x10000
 8002816:	601a      	str	r2, [r3, #0]
 8002818:	681a      	ldr	r2, [r3, #0]
 800281a:	0396      	lsls	r6, r2, #14
 800281c:	d5fc      	bpl.n	8002818 <its_board_init+0xb4>
 800281e:	4a6d      	ldr	r2, [pc, #436]	; (80029d4 <its_board_init+0x270>)
 8002820:	6893      	ldr	r3, [r2, #8]
 8002822:	f003 030c 	and.w	r3, r3, #12
 8002826:	2b08      	cmp	r3, #8
 8002828:	d00f      	beq.n	800284a <its_board_init+0xe6>
 800282a:	4b6f      	ldr	r3, [pc, #444]	; (80029e8 <its_board_init+0x284>)
 800282c:	2100      	movs	r1, #0
 800282e:	6019      	str	r1, [r3, #0]
 8002830:	6813      	ldr	r3, [r2, #0]
 8002832:	019d      	lsls	r5, r3, #6
 8002834:	d4fc      	bmi.n	8002830 <its_board_init+0xcc>
 8002836:	4b6c      	ldr	r3, [pc, #432]	; (80029e8 <its_board_init+0x284>)
 8002838:	486c      	ldr	r0, [pc, #432]	; (80029ec <its_board_init+0x288>)
 800283a:	6050      	str	r0, [r2, #4]
 800283c:	4965      	ldr	r1, [pc, #404]	; (80029d4 <its_board_init+0x270>)
 800283e:	2201      	movs	r2, #1
 8002840:	601a      	str	r2, [r3, #0]
 8002842:	680b      	ldr	r3, [r1, #0]
 8002844:	019c      	lsls	r4, r3, #6
 8002846:	d5fc      	bpl.n	8002842 <its_board_init+0xde>
 8002848:	e002      	b.n	8002850 <its_board_init+0xec>
 800284a:	6853      	ldr	r3, [r2, #4]
 800284c:	f000 fa7e 	bl	8002d4c <panic>
 8002850:	4b60      	ldr	r3, [pc, #384]	; (80029d4 <its_board_init+0x270>)
 8002852:	4867      	ldr	r0, [pc, #412]	; (80029f0 <its_board_init+0x28c>)
 8002854:	2200      	movs	r2, #0
 8002856:	9207      	str	r2, [sp, #28]
 8002858:	6c19      	ldr	r1, [r3, #64]	; 0x40
 800285a:	4a62      	ldr	r2, [pc, #392]	; (80029e4 <its_board_init+0x280>)
 800285c:	f041 5180 	orr.w	r1, r1, #268435456	; 0x10000000
 8002860:	6419      	str	r1, [r3, #64]	; 0x40
 8002862:	6c1b      	ldr	r3, [r3, #64]	; 0x40
 8002864:	f003 5380 	and.w	r3, r3, #268435456	; 0x10000000
 8002868:	9307      	str	r3, [sp, #28]
 800286a:	2301      	movs	r3, #1
 800286c:	9907      	ldr	r1, [sp, #28]
 800286e:	6003      	str	r3, [r0, #0]
 8002870:	6853      	ldr	r3, [r2, #4]
 8002872:	03d8      	lsls	r0, r3, #15
 8002874:	d5fc      	bpl.n	8002870 <its_board_init+0x10c>
 8002876:	4b5f      	ldr	r3, [pc, #380]	; (80029f4 <its_board_init+0x290>)
 8002878:	4a5a      	ldr	r2, [pc, #360]	; (80029e4 <its_board_init+0x280>)
 800287a:	2101      	movs	r1, #1
 800287c:	6019      	str	r1, [r3, #0]
 800287e:	6853      	ldr	r3, [r2, #4]
 8002880:	0399      	lsls	r1, r3, #14
 8002882:	d5fc      	bpl.n	800287e <its_board_init+0x11a>
 8002884:	4a55      	ldr	r2, [pc, #340]	; (80029dc <its_board_init+0x278>)
 8002886:	6813      	ldr	r3, [r2, #0]
 8002888:	f003 030f 	and.w	r3, r3, #15
 800288c:	2b04      	cmp	r3, #4
 800288e:	d860      	bhi.n	8002952 <its_board_init+0x1ee>
 8002890:	2305      	movs	r3, #5
 8002892:	7013      	strb	r3, [r2, #0]
 8002894:	6813      	ldr	r3, [r2, #0]
 8002896:	f003 030f 	and.w	r3, r3, #15
 800289a:	2b05      	cmp	r3, #5
 800289c:	d059      	beq.n	8002952 <its_board_init+0x1ee>
 800289e:	f000 fa55 	bl	8002d4c <panic>
 80028a2:	4b4c      	ldr	r3, [pc, #304]	; (80029d4 <its_board_init+0x270>)
 80028a4:	4854      	ldr	r0, [pc, #336]	; (80029f8 <its_board_init+0x294>)
 80028a6:	4d55      	ldr	r5, [pc, #340]	; (80029fc <its_board_init+0x298>)
 80028a8:	4e55      	ldr	r6, [pc, #340]	; (8002a00 <its_board_init+0x29c>)
 80028aa:	4f56      	ldr	r7, [pc, #344]	; (8002a04 <its_board_init+0x2a0>)
 80028ac:	2100      	movs	r1, #0
 80028ae:	9103      	str	r1, [sp, #12]
 80028b0:	6b1a      	ldr	r2, [r3, #48]	; 0x30
 80028b2:	f042 0208 	orr.w	r2, r2, #8
 80028b6:	631a      	str	r2, [r3, #48]	; 0x30
 80028b8:	6b1a      	ldr	r2, [r3, #48]	; 0x30
 80028ba:	f002 0208 	and.w	r2, r2, #8
 80028be:	9203      	str	r2, [sp, #12]
 80028c0:	9a03      	ldr	r2, [sp, #12]
 80028c2:	9104      	str	r1, [sp, #16]
 80028c4:	6b1a      	ldr	r2, [r3, #48]	; 0x30
 80028c6:	f042 0210 	orr.w	r2, r2, #16
 80028ca:	631a      	str	r2, [r3, #48]	; 0x30
 80028cc:	6b1a      	ldr	r2, [r3, #48]	; 0x30
 80028ce:	f002 0210 	and.w	r2, r2, #16
 80028d2:	9204      	str	r2, [sp, #16]
 80028d4:	9a04      	ldr	r2, [sp, #16]
 80028d6:	9105      	str	r1, [sp, #20]
 80028d8:	6b1a      	ldr	r2, [r3, #48]	; 0x30
 80028da:	f042 0220 	orr.w	r2, r2, #32
 80028de:	631a      	str	r2, [r3, #48]	; 0x30
 80028e0:	6b1a      	ldr	r2, [r3, #48]	; 0x30
 80028e2:	f002 0220 	and.w	r2, r2, #32
 80028e6:	9205      	str	r2, [sp, #20]
 80028e8:	9a05      	ldr	r2, [sp, #20]
 80028ea:	9106      	str	r1, [sp, #24]
 80028ec:	6b1a      	ldr	r2, [r3, #48]	; 0x30
 80028ee:	f042 0240 	orr.w	r2, r2, #64	; 0x40
 80028f2:	631a      	str	r2, [r3, #48]	; 0x30
 80028f4:	6b1c      	ldr	r4, [r3, #48]	; 0x30
 80028f6:	4a44      	ldr	r2, [pc, #272]	; (8002a08 <its_board_init+0x2a4>)
 80028f8:	4b44      	ldr	r3, [pc, #272]	; (8002a0c <its_board_init+0x2a8>)
 80028fa:	f004 0440 	and.w	r4, r4, #64	; 0x40
 80028fe:	9406      	str	r4, [sp, #24]
 8002900:	4c43      	ldr	r4, [pc, #268]	; (8002a10 <its_board_init+0x2ac>)
 8002902:	f8dd c018 	ldr.w	ip, [sp, #24]
 8002906:	6004      	str	r4, [r0, #0]
 8002908:	f44f 4400 	mov.w	r4, #32768	; 0x8000
 800290c:	6184      	str	r4, [r0, #24]
 800290e:	f04f 64a0 	mov.w	r4, #83886080	; 0x5000000
 8002912:	602c      	str	r4, [r5, #0]
 8002914:	f245 5455 	movw	r4, #21845	; 0x5555
 8002918:	6034      	str	r4, [r6, #0]
 800291a:	60c4      	str	r4, [r0, #12]
 800291c:	60f4      	str	r4, [r6, #12]
 800291e:	60ec      	str	r4, [r5, #12]
 8002920:	f240 5455 	movw	r4, #1365	; 0x555
 8002924:	60fc      	str	r4, [r7, #12]
 8002926:	f64f 74ff 	movw	r4, #65535	; 0xffff
 800292a:	6084      	str	r4, [r0, #8]
 800292c:	4293      	cmp	r3, r2
 800292e:	f640 70ff 	movw	r0, #4095	; 0xfff
 8002932:	60b4      	str	r4, [r6, #8]
 8002934:	60ac      	str	r4, [r5, #8]
 8002936:	60b8      	str	r0, [r7, #8]
 8002938:	d209      	bcs.n	800294e <its_board_init+0x1ea>
 800293a:	3a01      	subs	r2, #1
 800293c:	1ad2      	subs	r2, r2, r3
 800293e:	f022 0203 	bic.w	r2, r2, #3
 8002942:	3204      	adds	r2, #4
 8002944:	441a      	add	r2, r3
 8002946:	f843 1b04 	str.w	r1, [r3], #4
 800294a:	4293      	cmp	r3, r2
 800294c:	d1fb      	bne.n	8002946 <its_board_init+0x1e2>
 800294e:	b009      	add	sp, #36	; 0x24
 8002950:	bdf0      	pop	{r4, r5, r6, r7, pc}
 8002952:	4b20      	ldr	r3, [pc, #128]	; (80029d4 <its_board_init+0x270>)
 8002954:	689a      	ldr	r2, [r3, #8]
 8002956:	f442 52e0 	orr.w	r2, r2, #7168	; 0x1c00
 800295a:	609a      	str	r2, [r3, #8]
 800295c:	689a      	ldr	r2, [r3, #8]
 800295e:	f442 4260 	orr.w	r2, r2, #57344	; 0xe000
 8002962:	609a      	str	r2, [r3, #8]
 8002964:	689a      	ldr	r2, [r3, #8]
 8002966:	f022 02f0 	bic.w	r2, r2, #240	; 0xf0
 800296a:	609a      	str	r2, [r3, #8]
 800296c:	681a      	ldr	r2, [r3, #0]
 800296e:	0192      	lsls	r2, r2, #6
 8002970:	d595      	bpl.n	800289e <its_board_init+0x13a>
 8002972:	689a      	ldr	r2, [r3, #8]
 8002974:	f022 0203 	bic.w	r2, r2, #3
 8002978:	f042 0202 	orr.w	r2, r2, #2
 800297c:	609a      	str	r2, [r3, #8]
 800297e:	689a      	ldr	r2, [r3, #8]
 8002980:	f002 020c 	and.w	r2, r2, #12
 8002984:	2a08      	cmp	r2, #8
 8002986:	d1fa      	bne.n	800297e <its_board_init+0x21a>
 8002988:	4a14      	ldr	r2, [pc, #80]	; (80029dc <its_board_init+0x278>)
 800298a:	6813      	ldr	r3, [r2, #0]
 800298c:	f003 030f 	and.w	r3, r3, #15
 8002990:	2b05      	cmp	r3, #5
 8002992:	d907      	bls.n	80029a4 <its_board_init+0x240>
 8002994:	2305      	movs	r3, #5
 8002996:	7013      	strb	r3, [r2, #0]
 8002998:	6813      	ldr	r3, [r2, #0]
 800299a:	f003 030f 	and.w	r3, r3, #15
 800299e:	2b05      	cmp	r3, #5
 80029a0:	f47f af7d 	bne.w	800289e <its_board_init+0x13a>
 80029a4:	4a0b      	ldr	r2, [pc, #44]	; (80029d4 <its_board_init+0x270>)
 80029a6:	6893      	ldr	r3, [r2, #8]
 80029a8:	f423 53e0 	bic.w	r3, r3, #7168	; 0x1c00
 80029ac:	f443 53a0 	orr.w	r3, r3, #5120	; 0x1400
 80029b0:	6093      	str	r3, [r2, #8]
 80029b2:	6893      	ldr	r3, [r2, #8]
 80029b4:	f423 4360 	bic.w	r3, r3, #57344	; 0xe000
 80029b8:	f443 4300 	orr.w	r3, r3, #32768	; 0x8000
 80029bc:	6093      	str	r3, [r2, #8]
 80029be:	e770      	b.n	80028a2 <its_board_init+0x13e>
 80029c0:	685b      	ldr	r3, [r3, #4]
 80029c2:	025f      	lsls	r7, r3, #9
 80029c4:	f57f af1f 	bpl.w	8002806 <its_board_init+0xa2>
 80029c8:	4b02      	ldr	r3, [pc, #8]	; (80029d4 <its_board_init+0x270>)
 80029ca:	681b      	ldr	r3, [r3, #0]
 80029cc:	e727      	b.n	800281e <its_board_init+0xba>
 80029ce:	bf00      	nop
 80029d0:	e000ed00 	.word	0xe000ed00
 80029d4:	40023800 	.word	0x40023800
 80029d8:	24003010 	.word	0x24003010
 80029dc:	40023c00 	.word	0x40023c00
 80029e0:	05fa0300 	.word	0x05fa0300
 80029e4:	40007000 	.word	0x40007000
 80029e8:	42470060 	.word	0x42470060
 80029ec:	07405a08 	.word	0x07405a08
 80029f0:	420e0040 	.word	0x420e0040
 80029f4:	420e0044 	.word	0x420e0044
 80029f8:	40020c00 	.word	0x40020c00
 80029fc:	40021400 	.word	0x40021400
 8002a00:	40021000 	.word	0x40021000
 8002a04:	40021800 	.word	0x40021800
 8002a08:	20000cec 	.word	0x20000cec
 8002a0c:	2000000c 	.word	0x2000000c
 8002a10:	50005555 	.word	0x50005555

08002a14 <lcd_byte>:
 8002a14:	4a07      	ldr	r2, [pc, #28]	; (8002a34 <lcd_byte+0x20>)
 8002a16:	6893      	ldr	r3, [r2, #8]
 8002a18:	0799      	lsls	r1, r3, #30
 8002a1a:	d5fc      	bpl.n	8002a16 <lcd_byte+0x2>
 8002a1c:	4905      	ldr	r1, [pc, #20]	; (8002a34 <lcd_byte+0x20>)
 8002a1e:	60d0      	str	r0, [r2, #12]
 8002a20:	688b      	ldr	r3, [r1, #8]
 8002a22:	07da      	lsls	r2, r3, #31
 8002a24:	d5fc      	bpl.n	8002a20 <lcd_byte+0xc>
 8002a26:	4a03      	ldr	r2, [pc, #12]	; (8002a34 <lcd_byte+0x20>)
 8002a28:	6893      	ldr	r3, [r2, #8]
 8002a2a:	061b      	lsls	r3, r3, #24
 8002a2c:	d4fc      	bmi.n	8002a28 <lcd_byte+0x14>
 8002a2e:	68d0      	ldr	r0, [r2, #12]
 8002a30:	4770      	bx	lr
 8002a32:	bf00      	nop
 8002a34:	40013000 	.word	0x40013000

08002a38 <lcd_param>:
 8002a38:	4a0b      	ldr	r2, [pc, #44]	; (8002a68 <lcd_param+0x30>)
 8002a3a:	b538      	push	{r3, r4, r5, lr}
 8002a3c:	6993      	ldr	r3, [r2, #24]
 8002a3e:	4c0b      	ldr	r4, [pc, #44]	; (8002a6c <lcd_param+0x34>)
 8002a40:	f443 5300 	orr.w	r3, r3, #8192	; 0x2000
 8002a44:	6193      	str	r3, [r2, #24]
 8002a46:	69a3      	ldr	r3, [r4, #24]
 8002a48:	f043 4380 	orr.w	r3, r3, #1073741824	; 0x40000000
 8002a4c:	61a3      	str	r3, [r4, #24]
 8002a4e:	4605      	mov	r5, r0
 8002a50:	2000      	movs	r0, #0
 8002a52:	f7ff ffdf 	bl	8002a14 <lcd_byte>
 8002a56:	4628      	mov	r0, r5
 8002a58:	f7ff ffdc 	bl	8002a14 <lcd_byte>
 8002a5c:	69a3      	ldr	r3, [r4, #24]
 8002a5e:	f443 4380 	orr.w	r3, r3, #16384	; 0x4000
 8002a62:	61a3      	str	r3, [r4, #24]
 8002a64:	bd38      	pop	{r3, r4, r5, pc}
 8002a66:	bf00      	nop
 8002a68:	40021400 	.word	0x40021400
 8002a6c:	40020c00 	.word	0x40020c00

08002a70 <lcd_cmd>:
 8002a70:	4a08      	ldr	r2, [pc, #32]	; (8002a94 <lcd_cmd+0x24>)
 8002a72:	6993      	ldr	r3, [r2, #24]
 8002a74:	b510      	push	{r4, lr}
 8002a76:	f043 5300 	orr.w	r3, r3, #536870912	; 0x20000000
 8002a7a:	4c07      	ldr	r4, [pc, #28]	; (8002a98 <lcd_cmd+0x28>)
 8002a7c:	6193      	str	r3, [r2, #24]
 8002a7e:	69a3      	ldr	r3, [r4, #24]
 8002a80:	f043 4380 	orr.w	r3, r3, #1073741824	; 0x40000000
 8002a84:	61a3      	str	r3, [r4, #24]
 8002a86:	f7ff ffc5 	bl	8002a14 <lcd_byte>
 8002a8a:	69a3      	ldr	r3, [r4, #24]
 8002a8c:	f443 4380 	orr.w	r3, r3, #16384	; 0x4000
 8002a90:	61a3      	str	r3, [r4, #24]
 8002a92:	bd10      	pop	{r4, pc}
 8002a94:	40021400 	.word	0x40021400
 8002a98:	40020c00 	.word	0x40020c00

08002a9c <lcd_emit>:
 8002a9c:	b510      	push	{r4, lr}
 8002a9e:	4604      	mov	r4, r0
 8002aa0:	1200      	asrs	r0, r0, #8
 8002aa2:	f7ff ffb7 	bl	8002a14 <lcd_byte>
 8002aa6:	b2e0      	uxtb	r0, r4
 8002aa8:	e8bd 4010 	ldmia.w	sp!, {r4, lr}
 8002aac:	f7ff bfb2 	b.w	8002a14 <lcd_byte>

08002ab0 <lcd_reset>:
 8002ab0:	b510      	push	{r4, lr}
 8002ab2:	4c0d      	ldr	r4, [pc, #52]	; (8002ae8 <lcd_reset+0x38>)
 8002ab4:	69a3      	ldr	r3, [r4, #24]
 8002ab6:	f443 5380 	orr.w	r3, r3, #4096	; 0x1000
 8002aba:	61a3      	str	r3, [r4, #24]
 8002abc:	f44f 70fa 	mov.w	r0, #500	; 0x1f4
 8002ac0:	f000 f964 	bl	8002d8c <delay_ms>
 8002ac4:	69a3      	ldr	r3, [r4, #24]
 8002ac6:	f043 5380 	orr.w	r3, r3, #268435456	; 0x10000000
 8002aca:	61a3      	str	r3, [r4, #24]
 8002acc:	f44f 70fa 	mov.w	r0, #500	; 0x1f4
 8002ad0:	f000 f95c 	bl	8002d8c <delay_ms>
 8002ad4:	69a3      	ldr	r3, [r4, #24]
 8002ad6:	f443 5380 	orr.w	r3, r3, #4096	; 0x1000
 8002ada:	61a3      	str	r3, [r4, #24]
 8002adc:	f44f 70fa 	mov.w	r0, #500	; 0x1f4
 8002ae0:	e8bd 4010 	ldmia.w	sp!, {r4, lr}
 8002ae4:	f000 b952 	b.w	8002d8c <delay_ms>
 8002ae8:	40021400 	.word	0x40021400

08002aec <lcd_set_orientation>:
 8002aec:	2807      	cmp	r0, #7
 8002aee:	b538      	push	{r3, r4, r5, lr}
 8002af0:	d816      	bhi.n	8002b20 <lcd_set_orientation+0x34>
 8002af2:	4b0d      	ldr	r3, [pc, #52]	; (8002b28 <lcd_set_orientation+0x3c>)
 8002af4:	eb03 0280 	add.w	r2, r3, r0, lsl #2
 8002af8:	f853 4020 	ldr.w	r4, [r3, r0, lsl #2]
 8002afc:	6a15      	ldr	r5, [r2, #32]
 8002afe:	20b6      	movs	r0, #182	; 0xb6
 8002b00:	f7ff ffb6 	bl	8002a70 <lcd_cmd>
 8002b04:	2000      	movs	r0, #0
 8002b06:	f7ff ff97 	bl	8002a38 <lcd_param>
 8002b0a:	4628      	mov	r0, r5
 8002b0c:	f7ff ff94 	bl	8002a38 <lcd_param>
 8002b10:	2036      	movs	r0, #54	; 0x36
 8002b12:	f7ff ffad 	bl	8002a70 <lcd_cmd>
 8002b16:	4620      	mov	r0, r4
 8002b18:	e8bd 4038 	ldmia.w	sp!, {r3, r4, r5, lr}
 8002b1c:	f7ff bf8c 	b.w	8002a38 <lcd_param>
 8002b20:	2502      	movs	r5, #2
 8002b22:	2428      	movs	r4, #40	; 0x28
 8002b24:	e7eb      	b.n	8002afe <lcd_set_orientation+0x12>
 8002b26:	bf00      	nop
 8002b28:	08003b90 	.word	0x08003b90

08002b2c <lcd_set_backlight>:
 8002b2c:	4770      	bx	lr
 8002b2e:	bf00      	nop

08002b30 <lcd_window_start>:
 8002b30:	b5f8      	push	{r3, r4, r5, r6, r7, lr}
 8002b32:	4402      	add	r2, r0
 8002b34:	440b      	add	r3, r1
 8002b36:	4607      	mov	r7, r0
 8002b38:	202a      	movs	r0, #42	; 0x2a
 8002b3a:	460e      	mov	r6, r1
 8002b3c:	1e55      	subs	r5, r2, #1
 8002b3e:	1e5c      	subs	r4, r3, #1
 8002b40:	f7ff ff96 	bl	8002a70 <lcd_cmd>
 8002b44:	1238      	asrs	r0, r7, #8
 8002b46:	f7ff ff77 	bl	8002a38 <lcd_param>
 8002b4a:	b2f8      	uxtb	r0, r7
 8002b4c:	f7ff ff74 	bl	8002a38 <lcd_param>
 8002b50:	1228      	asrs	r0, r5, #8
 8002b52:	f7ff ff71 	bl	8002a38 <lcd_param>
 8002b56:	b2e8      	uxtb	r0, r5
 8002b58:	f7ff ff6e 	bl	8002a38 <lcd_param>
 8002b5c:	202b      	movs	r0, #43	; 0x2b
 8002b5e:	f7ff ff87 	bl	8002a70 <lcd_cmd>
 8002b62:	1230      	asrs	r0, r6, #8
 8002b64:	f7ff ff68 	bl	8002a38 <lcd_param>
 8002b68:	b2f0      	uxtb	r0, r6
 8002b6a:	f7ff ff65 	bl	8002a38 <lcd_param>
 8002b6e:	1220      	asrs	r0, r4, #8
 8002b70:	f7ff ff62 	bl	8002a38 <lcd_param>
 8002b74:	b2e0      	uxtb	r0, r4
 8002b76:	f7ff ff5f 	bl	8002a38 <lcd_param>
 8002b7a:	202c      	movs	r0, #44	; 0x2c
 8002b7c:	f7ff ff78 	bl	8002a70 <lcd_cmd>
 8002b80:	4905      	ldr	r1, [pc, #20]	; (8002b98 <lcd_window_start+0x68>)
 8002b82:	4a06      	ldr	r2, [pc, #24]	; (8002b9c <lcd_window_start+0x6c>)
 8002b84:	698b      	ldr	r3, [r1, #24]
 8002b86:	f443 5300 	orr.w	r3, r3, #8192	; 0x2000
 8002b8a:	618b      	str	r3, [r1, #24]
 8002b8c:	6993      	ldr	r3, [r2, #24]
 8002b8e:	f043 4380 	orr.w	r3, r3, #1073741824	; 0x40000000
 8002b92:	6193      	str	r3, [r2, #24]
 8002b94:	bdf8      	pop	{r3, r4, r5, r6, r7, pc}
 8002b96:	bf00      	nop
 8002b98:	40021400 	.word	0x40021400
 8002b9c:	40020c00 	.word	0x40020c00

08002ba0 <lcd_window_end>:
 8002ba0:	4a02      	ldr	r2, [pc, #8]	; (8002bac <lcd_window_end+0xc>)
 8002ba2:	6993      	ldr	r3, [r2, #24]
 8002ba4:	f443 4380 	orr.w	r3, r3, #16384	; 0x4000
 8002ba8:	6193      	str	r3, [r2, #24]
 8002baa:	4770      	bx	lr
 8002bac:	40020c00 	.word	0x40020c00

08002bb0 <lcd_rect>:
 8002bb0:	b5f8      	push	{r3, r4, r5, r6, r7, lr}
 8002bb2:	fb03 f702 	mul.w	r7, r3, r2
 8002bb6:	9d06      	ldr	r5, [sp, #24]
 8002bb8:	f7ff ffba 	bl	8002b30 <lcd_window_start>
 8002bbc:	b15f      	cbz	r7, 8002bd6 <lcd_rect+0x26>
 8002bbe:	122e      	asrs	r6, r5, #8
 8002bc0:	1e7c      	subs	r4, r7, #1
 8002bc2:	b2ed      	uxtb	r5, r5
 8002bc4:	4630      	mov	r0, r6
 8002bc6:	f7ff ff25 	bl	8002a14 <lcd_byte>
 8002bca:	3c01      	subs	r4, #1
 8002bcc:	4628      	mov	r0, r5
 8002bce:	f7ff ff21 	bl	8002a14 <lcd_byte>
 8002bd2:	1c63      	adds	r3, r4, #1
 8002bd4:	d1f6      	bne.n	8002bc4 <lcd_rect+0x14>
 8002bd6:	4a03      	ldr	r2, [pc, #12]	; (8002be4 <lcd_rect+0x34>)
 8002bd8:	6993      	ldr	r3, [r2, #24]
 8002bda:	f443 4380 	orr.w	r3, r3, #16384	; 0x4000
 8002bde:	6193      	str	r3, [r2, #24]
 8002be0:	bdf8      	pop	{r3, r4, r5, r6, r7, pc}
 8002be2:	bf00      	nop
 8002be4:	40020c00 	.word	0x40020c00

08002be8 <lcd_callback>:
 8002be8:	e92d 47f0 	stmdb	sp!, {r4, r5, r6, r7, r8, r9, sl, lr}
 8002bec:	469a      	mov	sl, r3
 8002bee:	4617      	mov	r7, r2
 8002bf0:	e9dd 8908 	ldrd	r8, r9, [sp, #32]
 8002bf4:	f7ff ff9c 	bl	8002b30 <lcd_window_start>
 8002bf8:	f1ba 0f00 	cmp.w	sl, #0
 8002bfc:	bfc8      	it	gt
 8002bfe:	2600      	movgt	r6, #0
 8002c00:	dd14      	ble.n	8002c2c <lcd_callback+0x44>
 8002c02:	2f00      	cmp	r7, #0
 8002c04:	bfc8      	it	gt
 8002c06:	2400      	movgt	r4, #0
 8002c08:	dd0d      	ble.n	8002c26 <lcd_callback+0x3e>
 8002c0a:	4642      	mov	r2, r8
 8002c0c:	4631      	mov	r1, r6
 8002c0e:	4620      	mov	r0, r4
 8002c10:	47c8      	blx	r9
 8002c12:	4605      	mov	r5, r0
 8002c14:	1200      	asrs	r0, r0, #8
 8002c16:	f7ff fefd 	bl	8002a14 <lcd_byte>
 8002c1a:	3401      	adds	r4, #1
 8002c1c:	b2e8      	uxtb	r0, r5
 8002c1e:	f7ff fef9 	bl	8002a14 <lcd_byte>
 8002c22:	42a7      	cmp	r7, r4
 8002c24:	d1f1      	bne.n	8002c0a <lcd_callback+0x22>
 8002c26:	3601      	adds	r6, #1
 8002c28:	45b2      	cmp	sl, r6
 8002c2a:	d1ea      	bne.n	8002c02 <lcd_callback+0x1a>
 8002c2c:	4a03      	ldr	r2, [pc, #12]	; (8002c3c <lcd_callback+0x54>)
 8002c2e:	6993      	ldr	r3, [r2, #24]
 8002c30:	f443 4380 	orr.w	r3, r3, #16384	; 0x4000
 8002c34:	6193      	str	r3, [r2, #24]
 8002c36:	e8bd 87f0 	ldmia.w	sp!, {r4, r5, r6, r7, r8, r9, sl, pc}
 8002c3a:	bf00      	nop
 8002c3c:	40020c00 	.word	0x40020c00

08002c40 <lcd_init>:
 8002c40:	e92d 4ff0 	stmdb	sp!, {r4, r5, r6, r7, r8, r9, sl, fp, lr}
 8002c44:	4c38      	ldr	r4, [pc, #224]	; (8002d28 <lcd_init+0xe8>)
 8002c46:	4939      	ldr	r1, [pc, #228]	; (8002d2c <lcd_init+0xec>)
 8002c48:	6c65      	ldr	r5, [r4, #68]	; 0x44
 8002c4a:	4b39      	ldr	r3, [pc, #228]	; (8002d30 <lcd_init+0xf0>)
 8002c4c:	4e39      	ldr	r6, [pc, #228]	; (8002d34 <lcd_init+0xf4>)
 8002c4e:	f445 5580 	orr.w	r5, r5, #4096	; 0x1000
 8002c52:	6465      	str	r5, [r4, #68]	; 0x44
 8002c54:	6b25      	ldr	r5, [r4, #48]	; 0x30
 8002c56:	f045 0501 	orr.w	r5, r5, #1
 8002c5a:	6325      	str	r5, [r4, #48]	; 0x30
 8002c5c:	680c      	ldr	r4, [r1, #0]
 8002c5e:	f444 4428 	orr.w	r4, r4, #43008	; 0xa800
 8002c62:	600c      	str	r4, [r1, #0]
 8002c64:	688c      	ldr	r4, [r1, #8]
 8002c66:	f444 4428 	orr.w	r4, r4, #43008	; 0xa800
 8002c6a:	608c      	str	r4, [r1, #8]
 8002c6c:	68cc      	ldr	r4, [r1, #12]
 8002c6e:	f444 6400 	orr.w	r4, r4, #2048	; 0x800
 8002c72:	60cc      	str	r4, [r1, #12]
 8002c74:	6a0c      	ldr	r4, [r1, #32]
 8002c76:	f044 44aa 	orr.w	r4, r4, #1426063360	; 0x55000000
 8002c7a:	f444 04a0 	orr.w	r4, r4, #5242880	; 0x500000
 8002c7e:	620c      	str	r4, [r1, #32]
 8002c80:	6819      	ldr	r1, [r3, #0]
 8002c82:	f44f 7547 	mov.w	r5, #796	; 0x31c
 8002c86:	f021 0140 	bic.w	r1, r1, #64	; 0x40
 8002c8a:	2400      	movs	r4, #0
 8002c8c:	6019      	str	r1, [r3, #0]
 8002c8e:	601d      	str	r5, [r3, #0]
 8002c90:	605c      	str	r4, [r3, #4]
 8002c92:	69d9      	ldr	r1, [r3, #28]
 8002c94:	f421 6100 	bic.w	r1, r1, #2048	; 0x800
 8002c98:	61d9      	str	r1, [r3, #28]
 8002c9a:	6819      	ldr	r1, [r3, #0]
 8002c9c:	f041 0140 	orr.w	r1, r1, #64	; 0x40
 8002ca0:	b085      	sub	sp, #20
 8002ca2:	6019      	str	r1, [r3, #0]
 8002ca4:	4680      	mov	r8, r0
 8002ca6:	4617      	mov	r7, r2
 8002ca8:	f106 0a40 	add.w	sl, r6, #64	; 0x40
 8002cac:	f7ff ff00 	bl	8002ab0 <lcd_reset>
 8002cb0:	f106 0941 	add.w	r9, r6, #65	; 0x41
 8002cb4:	20f9      	movs	r0, #249	; 0xf9
 8002cb6:	f7ff fedb 	bl	8002a70 <lcd_cmd>
 8002cba:	1932      	adds	r2, r6, r4
 8002cbc:	1ca3      	adds	r3, r4, #2
 8002cbe:	f892 1041 	ldrb.w	r1, [r2, #65]	; 0x41
 8002cc2:	1e4a      	subs	r2, r1, #1
 8002cc4:	b171      	cbz	r1, 8002ce4 <lcd_init+0xa4>
 8002cc6:	1c65      	adds	r5, r4, #1
 8002cc8:	eb09 0b04 	add.w	fp, r9, r4
 8002ccc:	4455      	add	r5, sl
 8002cce:	448b      	add	fp, r1
 8002cd0:	f815 0f01 	ldrb.w	r0, [r5, #1]!
 8002cd4:	9203      	str	r2, [sp, #12]
 8002cd6:	f7ff feaf 	bl	8002a38 <lcd_param>
 8002cda:	455d      	cmp	r5, fp
 8002cdc:	9a03      	ldr	r2, [sp, #12]
 8002cde:	d1f7      	bne.n	8002cd0 <lcd_init+0x90>
 8002ce0:	3403      	adds	r4, #3
 8002ce2:	18a3      	adds	r3, r4, r2
 8002ce4:	2b66      	cmp	r3, #102	; 0x66
 8002ce6:	dc04      	bgt.n	8002cf2 <lcd_init+0xb2>
 8002ce8:	18f2      	adds	r2, r6, r3
 8002cea:	461c      	mov	r4, r3
 8002cec:	f892 0040 	ldrb.w	r0, [r2, #64]	; 0x40
 8002cf0:	e7e1      	b.n	8002cb6 <lcd_init+0x76>
 8002cf2:	4640      	mov	r0, r8
 8002cf4:	f7ff fefa 	bl	8002aec <lcd_set_orientation>
 8002cf8:	20c8      	movs	r0, #200	; 0xc8
 8002cfa:	f000 f847 	bl	8002d8c <delay_ms>
 8002cfe:	2011      	movs	r0, #17
 8002d00:	f7ff feb6 	bl	8002a70 <lcd_cmd>
 8002d04:	2078      	movs	r0, #120	; 0x78
 8002d06:	f000 f841 	bl	8002d8c <delay_ms>
 8002d0a:	2029      	movs	r0, #41	; 0x29
 8002d0c:	f7ff feb0 	bl	8002a70 <lcd_cmd>
 8002d10:	2100      	movs	r1, #0
 8002d12:	9700      	str	r7, [sp, #0]
 8002d14:	4608      	mov	r0, r1
 8002d16:	f44f 73a0 	mov.w	r3, #320	; 0x140
 8002d1a:	f44f 72f0 	mov.w	r2, #480	; 0x1e0
 8002d1e:	f7ff ff47 	bl	8002bb0 <lcd_rect>
 8002d22:	b005      	add	sp, #20
 8002d24:	e8bd 8ff0 	ldmia.w	sp!, {r4, r5, r6, r7, r8, r9, sl, fp, pc}
 8002d28:	40023800 	.word	0x40023800
 8002d2c:	40020000 	.word	0x40020000
 8002d30:	40013000 	.word	0x40013000
 8002d34:	08003b90 	.word	0x08003b90

08002d38 <lcd_color>:
 8002d38:	00c9      	lsls	r1, r1, #3
 8002d3a:	f401 61fc 	and.w	r1, r1, #2016	; 0x7e0
 8002d3e:	0200      	lsls	r0, r0, #8
 8002d40:	ea41 01e2 	orr.w	r1, r1, r2, asr #3
 8002d44:	f400 4078 	and.w	r0, r0, #63488	; 0xf800
 8002d48:	4308      	orrs	r0, r1
 8002d4a:	4770      	bx	lr

08002d4c <panic>:
 8002d4c:	b580      	push	{r7, lr}
 8002d4e:	4e08      	ldr	r6, [pc, #32]	; (8002d70 <panic+0x24>)
 8002d50:	4f08      	ldr	r7, [pc, #32]	; (8002d74 <panic+0x28>)
 8002d52:	25aa      	movs	r5, #170	; 0xaa
 8002d54:	2455      	movs	r4, #85	; 0x55
 8002d56:	617d      	str	r5, [r7, #20]
 8002d58:	f44f 707a 	mov.w	r0, #1000	; 0x3e8
 8002d5c:	6175      	str	r5, [r6, #20]
 8002d5e:	f000 f815 	bl	8002d8c <delay_ms>
 8002d62:	617c      	str	r4, [r7, #20]
 8002d64:	f44f 707a 	mov.w	r0, #1000	; 0x3e8
 8002d68:	6174      	str	r4, [r6, #20]
 8002d6a:	f000 f80f 	bl	8002d8c <delay_ms>
 8002d6e:	e7f2      	b.n	8002d56 <panic+0xa>
 8002d70:	40021000 	.word	0x40021000
 8002d74:	40020c00 	.word	0x40020c00

08002d78 <delay_us>:
 8002d78:	f04f 4280 	mov.w	r2, #1073741824	; 0x40000000
 8002d7c:	235a      	movs	r3, #90	; 0x5a
 8002d7e:	6a51      	ldr	r1, [r2, #36]	; 0x24
 8002d80:	fb03 1000 	mla	r0, r3, r0, r1
 8002d84:	6a53      	ldr	r3, [r2, #36]	; 0x24
 8002d86:	4298      	cmp	r0, r3
 8002d88:	d8fc      	bhi.n	8002d84 <delay_us+0xc>
 8002d8a:	4770      	bx	lr

08002d8c <delay_ms>:
 8002d8c:	f04f 4280 	mov.w	r2, #1073741824	; 0x40000000
 8002d90:	4b03      	ldr	r3, [pc, #12]	; (8002da0 <delay_ms+0x14>)
 8002d92:	6a51      	ldr	r1, [r2, #36]	; 0x24
 8002d94:	fb03 1000 	mla	r0, r3, r0, r1
 8002d98:	6a53      	ldr	r3, [r2, #36]	; 0x24
 8002d9a:	4298      	cmp	r0, r3
 8002d9c:	d8fc      	bhi.n	8002d98 <delay_ms+0xc>
 8002d9e:	4770      	bx	lr
 8002da0:	00015f90 	.word	0x00015f90

08002da4 <strlen>:
 8002da4:	4603      	mov	r3, r0
 8002da6:	f813 2b01 	ldrb.w	r2, [r3], #1
 8002daa:	2a00      	cmp	r2, #0
 8002dac:	d1fb      	bne.n	8002da6 <strlen+0x2>
 8002dae:	1a18      	subs	r0, r3, r0
 8002db0:	3801      	subs	r0, #1
 8002db2:	4770      	bx	lr

08002db4 <strnlen>:
 8002db4:	b1b1      	cbz	r1, 8002de4 <strnlen+0x30>
 8002db6:	7803      	ldrb	r3, [r0, #0]
 8002db8:	b19b      	cbz	r3, 8002de2 <strnlen+0x2e>
 8002dba:	2300      	movs	r3, #0
 8002dbc:	3301      	adds	r3, #1
 8002dbe:	4299      	cmp	r1, r3
 8002dc0:	4602      	mov	r2, r0
 8002dc2:	d00f      	beq.n	8002de4 <strnlen+0x30>
 8002dc4:	b410      	push	{r4}
 8002dc6:	f812 4f01 	ldrb.w	r4, [r2, #1]!
 8002dca:	b134      	cbz	r4, 8002dda <strnlen+0x26>
 8002dcc:	3301      	adds	r3, #1
 8002dce:	4299      	cmp	r1, r3
 8002dd0:	d004      	beq.n	8002ddc <strnlen+0x28>
 8002dd2:	f812 4f01 	ldrb.w	r4, [r2, #1]!
 8002dd6:	2c00      	cmp	r4, #0
 8002dd8:	d1f8      	bne.n	8002dcc <strnlen+0x18>
 8002dda:	4619      	mov	r1, r3
 8002ddc:	4608      	mov	r0, r1
 8002dde:	bc10      	pop	{r4}
 8002de0:	4770      	bx	lr
 8002de2:	4619      	mov	r1, r3
 8002de4:	4608      	mov	r0, r1
 8002de6:	4770      	bx	lr

08002de8 <strcpy>:
 8002de8:	780b      	ldrb	r3, [r1, #0]
 8002dea:	7003      	strb	r3, [r0, #0]
 8002dec:	b133      	cbz	r3, 8002dfc <strcpy+0x14>
 8002dee:	4602      	mov	r2, r0
 8002df0:	f811 3f01 	ldrb.w	r3, [r1, #1]!
 8002df4:	f802 3f01 	strb.w	r3, [r2, #1]!
 8002df8:	2b00      	cmp	r3, #0
 8002dfa:	d1f9      	bne.n	8002df0 <strcpy+0x8>
 8002dfc:	4770      	bx	lr
 8002dfe:	bf00      	nop

08002e00 <strcmp>:
 8002e00:	7803      	ldrb	r3, [r0, #0]
 8002e02:	780a      	ldrb	r2, [r1, #0]
 8002e04:	429a      	cmp	r2, r3
 8002e06:	d108      	bne.n	8002e1a <strcmp+0x1a>
 8002e08:	b90a      	cbnz	r2, 8002e0e <strcmp+0xe>
 8002e0a:	e00a      	b.n	8002e22 <strcmp+0x22>
 8002e0c:	b13b      	cbz	r3, 8002e1e <strcmp+0x1e>
 8002e0e:	f810 3f01 	ldrb.w	r3, [r0, #1]!
 8002e12:	f811 2f01 	ldrb.w	r2, [r1, #1]!
 8002e16:	4293      	cmp	r3, r2
 8002e18:	d0f8      	beq.n	8002e0c <strcmp+0xc>
 8002e1a:	1a98      	subs	r0, r3, r2
 8002e1c:	4770      	bx	lr
 8002e1e:	4618      	mov	r0, r3
 8002e20:	4770      	bx	lr
 8002e22:	4610      	mov	r0, r2
 8002e24:	4770      	bx	lr
 8002e26:	bf00      	nop

08002e28 <strncmp>:
 8002e28:	b1d2      	cbz	r2, 8002e60 <strncmp+0x38>
 8002e2a:	b410      	push	{r4}
 8002e2c:	780c      	ldrb	r4, [r1, #0]
 8002e2e:	7803      	ldrb	r3, [r0, #0]
 8002e30:	429c      	cmp	r4, r3
 8002e32:	d10f      	bne.n	8002e54 <strncmp+0x2c>
 8002e34:	b15c      	cbz	r4, 8002e4e <strncmp+0x26>
 8002e36:	3a01      	subs	r2, #1
 8002e38:	440a      	add	r2, r1
 8002e3a:	e006      	b.n	8002e4a <strncmp+0x22>
 8002e3c:	f810 3f01 	ldrb.w	r3, [r0, #1]!
 8002e40:	f811 4f01 	ldrb.w	r4, [r1, #1]!
 8002e44:	42a3      	cmp	r3, r4
 8002e46:	d105      	bne.n	8002e54 <strncmp+0x2c>
 8002e48:	b13b      	cbz	r3, 8002e5a <strncmp+0x32>
 8002e4a:	4291      	cmp	r1, r2
 8002e4c:	d1f6      	bne.n	8002e3c <strncmp+0x14>
 8002e4e:	2000      	movs	r0, #0
 8002e50:	bc10      	pop	{r4}
 8002e52:	4770      	bx	lr
 8002e54:	1b18      	subs	r0, r3, r4
 8002e56:	bc10      	pop	{r4}
 8002e58:	4770      	bx	lr
 8002e5a:	4618      	mov	r0, r3
 8002e5c:	bc10      	pop	{r4}
 8002e5e:	4770      	bx	lr
 8002e60:	4610      	mov	r0, r2
 8002e62:	4770      	bx	lr

08002e64 <memcpy>:
 8002e64:	4281      	cmp	r1, r0
 8002e66:	d00d      	beq.n	8002e84 <memcpy+0x20>
 8002e68:	1883      	adds	r3, r0, r2
 8002e6a:	4298      	cmp	r0, r3
 8002e6c:	d00a      	beq.n	8002e84 <memcpy+0x20>
 8002e6e:	b410      	push	{r4}
 8002e70:	440a      	add	r2, r1
 8002e72:	1e43      	subs	r3, r0, #1
 8002e74:	f811 4b01 	ldrb.w	r4, [r1], #1
 8002e78:	f803 4f01 	strb.w	r4, [r3, #1]!
 8002e7c:	4291      	cmp	r1, r2
 8002e7e:	d1f9      	bne.n	8002e74 <memcpy+0x10>
 8002e80:	bc10      	pop	{r4}
 8002e82:	4770      	bx	lr
 8002e84:	4770      	bx	lr
 8002e86:	bf00      	nop

08002e88 <memmove>:
 8002e88:	4281      	cmp	r1, r0
 8002e8a:	b410      	push	{r4}
 8002e8c:	eb01 0302 	add.w	r3, r1, r2
 8002e90:	d20c      	bcs.n	8002eac <memmove+0x24>
 8002e92:	4298      	cmp	r0, r3
 8002e94:	d20b      	bcs.n	8002eae <memmove+0x26>
 8002e96:	4299      	cmp	r1, r3
 8002e98:	4402      	add	r2, r0
 8002e9a:	d205      	bcs.n	8002ea8 <memmove+0x20>
 8002e9c:	f813 4d01 	ldrb.w	r4, [r3, #-1]!
 8002ea0:	f802 4d01 	strb.w	r4, [r2, #-1]!
 8002ea4:	4299      	cmp	r1, r3
 8002ea6:	d1f9      	bne.n	8002e9c <memmove+0x14>
 8002ea8:	bc10      	pop	{r4}
 8002eaa:	4770      	bx	lr
 8002eac:	d0fc      	beq.n	8002ea8 <memmove+0x20>
 8002eae:	4299      	cmp	r1, r3
 8002eb0:	bf38      	it	cc
 8002eb2:	f100 32ff 	addcc.w	r2, r0, #4294967295	; 0xffffffff
 8002eb6:	d2f7      	bcs.n	8002ea8 <memmove+0x20>
 8002eb8:	f811 4b01 	ldrb.w	r4, [r1], #1
 8002ebc:	f802 4f01 	strb.w	r4, [r2, #1]!
 8002ec0:	428b      	cmp	r3, r1
 8002ec2:	d0f1      	beq.n	8002ea8 <memmove+0x20>
 8002ec4:	f811 4b01 	ldrb.w	r4, [r1], #1
 8002ec8:	f802 4f01 	strb.w	r4, [r2, #1]!
 8002ecc:	428b      	cmp	r3, r1
 8002ece:	d1f3      	bne.n	8002eb8 <memmove+0x30>
 8002ed0:	e7ea      	b.n	8002ea8 <memmove+0x20>
 8002ed2:	bf00      	nop

08002ed4 <memset>:
 8002ed4:	4402      	add	r2, r0
 8002ed6:	4290      	cmp	r0, r2
 8002ed8:	d205      	bcs.n	8002ee6 <memset+0x12>
 8002eda:	b2c9      	uxtb	r1, r1
 8002edc:	4603      	mov	r3, r0
 8002ede:	f803 1b01 	strb.w	r1, [r3], #1
 8002ee2:	429a      	cmp	r2, r3
 8002ee4:	d1fb      	bne.n	8002ede <memset+0xa>
 8002ee6:	4770      	bx	lr

08002ee8 <print_num>:
 8002ee8:	e92d 43f0 	stmdb	sp!, {r4, r5, r6, r7, r8, r9, lr}
 8002eec:	9e0e      	ldr	r6, [sp, #56]	; 0x38
 8002eee:	f8dd c01c 	ldr.w	ip, [sp, #28]
 8002ef2:	9d0a      	ldr	r5, [sp, #40]	; 0x28
 8002ef4:	e9dd 740f 	ldrd	r7, r4, [sp, #60]	; 0x3c
 8002ef8:	bb56      	cbnz	r6, 8002f50 <print_num+0x68>
 8002efa:	9e0b      	ldr	r6, [sp, #44]	; 0x2c
 8002efc:	2e00      	cmp	r6, #0
 8002efe:	f040 812d 	bne.w	800315c <print_num+0x274>
 8002f02:	9e0c      	ldr	r6, [sp, #48]	; 0x30
 8002f04:	2e00      	cmp	r6, #0
 8002f06:	f040 80b2 	bne.w	800306e <print_num+0x186>
 8002f0a:	b32d      	cbz	r5, 8002f58 <print_num+0x70>
 8002f0c:	f1bc 0f00 	cmp.w	ip, #0
 8002f10:	f040 80bd 	bne.w	800308e <print_num+0x1a6>
 8002f14:	9d0d      	ldr	r5, [sp, #52]	; 0x34
 8002f16:	2d00      	cmp	r5, #0
 8002f18:	f000 80b9 	beq.w	800308e <print_num+0x1a6>
 8002f1c:	4666      	mov	r6, ip
 8002f1e:	42b3      	cmp	r3, r6
 8002f20:	dd14      	ble.n	8002f4c <print_num+0x64>
 8002f22:	1b9b      	subs	r3, r3, r6
 8002f24:	3b01      	subs	r3, #1
 8002f26:	2620      	movs	r6, #32
 8002f28:	680c      	ldr	r4, [r1, #0]
 8002f2a:	2c01      	cmp	r4, #1
 8002f2c:	f103 33ff 	add.w	r3, r3, #4294967295	; 0xffffffff
 8002f30:	d906      	bls.n	8002f40 <print_num+0x58>
 8002f32:	6804      	ldr	r4, [r0, #0]
 8002f34:	1c65      	adds	r5, r4, #1
 8002f36:	6005      	str	r5, [r0, #0]
 8002f38:	7026      	strb	r6, [r4, #0]
 8002f3a:	680c      	ldr	r4, [r1, #0]
 8002f3c:	3c01      	subs	r4, #1
 8002f3e:	600c      	str	r4, [r1, #0]
 8002f40:	6814      	ldr	r4, [r2, #0]
 8002f42:	1c5f      	adds	r7, r3, #1
 8002f44:	f104 0401 	add.w	r4, r4, #1
 8002f48:	6014      	str	r4, [r2, #0]
 8002f4a:	d1ed      	bne.n	8002f28 <print_num+0x40>
 8002f4c:	e8bd 83f0 	ldmia.w	sp!, {r4, r5, r6, r7, r8, r9, pc}
 8002f50:	2d00      	cmp	r5, #0
 8002f52:	f040 80e0 	bne.w	8003116 <print_num+0x22e>
 8002f56:	252d      	movs	r5, #45	; 0x2d
 8002f58:	f1bc 0f00 	cmp.w	ip, #0
 8002f5c:	d103      	bne.n	8002f66 <print_num+0x7e>
 8002f5e:	9e0d      	ldr	r6, [sp, #52]	; 0x34
 8002f60:	2e00      	cmp	r6, #0
 8002f62:	f040 8092 	bne.w	800308a <print_num+0x1a2>
 8002f66:	4564      	cmp	r4, ip
 8002f68:	4626      	mov	r6, r4
 8002f6a:	bfb8      	it	lt
 8002f6c:	4666      	movlt	r6, ip
 8002f6e:	46b0      	mov	r8, r6
 8002f70:	9e08      	ldr	r6, [sp, #32]
 8002f72:	2e00      	cmp	r6, #0
 8002f74:	d141      	bne.n	8002ffa <print_num+0x112>
 8002f76:	9e09      	ldr	r6, [sp, #36]	; 0x24
 8002f78:	2e00      	cmp	r6, #0
 8002f7a:	d03e      	beq.n	8002ffa <print_num+0x112>
 8002f7c:	4598      	cmp	r8, r3
 8002f7e:	da5d      	bge.n	800303c <print_num+0x154>
 8002f80:	469e      	mov	lr, r3
 8002f82:	2d00      	cmp	r5, #0
 8002f84:	d163      	bne.n	800304e <print_num+0x166>
 8002f86:	45a6      	cmp	lr, r4
 8002f88:	dd16      	ble.n	8002fb8 <print_num+0xd0>
 8002f8a:	ebae 0504 	sub.w	r5, lr, r4
 8002f8e:	3d01      	subs	r5, #1
 8002f90:	2630      	movs	r6, #48	; 0x30
 8002f92:	680b      	ldr	r3, [r1, #0]
 8002f94:	2b01      	cmp	r3, #1
 8002f96:	f105 35ff 	add.w	r5, r5, #4294967295	; 0xffffffff
 8002f9a:	d908      	bls.n	8002fae <print_num+0xc6>
 8002f9c:	6803      	ldr	r3, [r0, #0]
 8002f9e:	f103 0e01 	add.w	lr, r3, #1
 8002fa2:	f8c0 e000 	str.w	lr, [r0]
 8002fa6:	701e      	strb	r6, [r3, #0]
 8002fa8:	680b      	ldr	r3, [r1, #0]
 8002faa:	3b01      	subs	r3, #1
 8002fac:	600b      	str	r3, [r1, #0]
 8002fae:	6813      	ldr	r3, [r2, #0]
 8002fb0:	3301      	adds	r3, #1
 8002fb2:	6013      	str	r3, [r2, #0]
 8002fb4:	1c6b      	adds	r3, r5, #1
 8002fb6:	d1ec      	bne.n	8002f92 <print_num+0xaa>
 8002fb8:	f1bc 0f00 	cmp.w	ip, #0
 8002fbc:	d102      	bne.n	8002fc4 <print_num+0xdc>
 8002fbe:	9b0d      	ldr	r3, [sp, #52]	; 0x34
 8002fc0:	2b00      	cmp	r3, #0
 8002fc2:	d1c3      	bne.n	8002f4c <print_num+0x64>
 8002fc4:	2c00      	cmp	r4, #0
 8002fc6:	d0c1      	beq.n	8002f4c <print_num+0x64>
 8002fc8:	3c01      	subs	r4, #1
 8002fca:	443c      	add	r4, r7
 8002fcc:	e000      	b.n	8002fd0 <print_num+0xe8>
 8002fce:	462c      	mov	r4, r5
 8002fd0:	680b      	ldr	r3, [r1, #0]
 8002fd2:	2b01      	cmp	r3, #1
 8002fd4:	f104 35ff 	add.w	r5, r4, #4294967295	; 0xffffffff
 8002fd8:	d907      	bls.n	8002fea <print_num+0x102>
 8002fda:	6803      	ldr	r3, [r0, #0]
 8002fdc:	1c5e      	adds	r6, r3, #1
 8002fde:	6006      	str	r6, [r0, #0]
 8002fe0:	7826      	ldrb	r6, [r4, #0]
 8002fe2:	701e      	strb	r6, [r3, #0]
 8002fe4:	680b      	ldr	r3, [r1, #0]
 8002fe6:	3b01      	subs	r3, #1
 8002fe8:	600b      	str	r3, [r1, #0]
 8002fea:	6813      	ldr	r3, [r2, #0]
 8002fec:	42a7      	cmp	r7, r4
 8002fee:	f103 0301 	add.w	r3, r3, #1
 8002ff2:	6013      	str	r3, [r2, #0]
 8002ff4:	d1eb      	bne.n	8002fce <print_num+0xe6>
 8002ff6:	e8bd 83f0 	ldmia.w	sp!, {r4, r5, r6, r7, r8, r9, pc}
 8002ffa:	bb15      	cbnz	r5, 8003042 <print_num+0x15a>
 8002ffc:	4598      	cmp	r8, r3
 8002ffe:	f280 80ba 	bge.w	8003176 <print_num+0x28e>
 8003002:	46c6      	mov	lr, r8
 8003004:	eba3 030e 	sub.w	r3, r3, lr
 8003008:	3b01      	subs	r3, #1
 800300a:	f04f 0820 	mov.w	r8, #32
 800300e:	680e      	ldr	r6, [r1, #0]
 8003010:	2e01      	cmp	r6, #1
 8003012:	f103 33ff 	add.w	r3, r3, #4294967295	; 0xffffffff
 8003016:	d909      	bls.n	800302c <print_num+0x144>
 8003018:	6806      	ldr	r6, [r0, #0]
 800301a:	f106 0901 	add.w	r9, r6, #1
 800301e:	f8c0 9000 	str.w	r9, [r0]
 8003022:	f886 8000 	strb.w	r8, [r6]
 8003026:	680e      	ldr	r6, [r1, #0]
 8003028:	3e01      	subs	r6, #1
 800302a:	600e      	str	r6, [r1, #0]
 800302c:	6816      	ldr	r6, [r2, #0]
 800302e:	3601      	adds	r6, #1
 8003030:	6016      	str	r6, [r2, #0]
 8003032:	1c5e      	adds	r6, r3, #1
 8003034:	d1eb      	bne.n	800300e <print_num+0x126>
 8003036:	2d00      	cmp	r5, #0
 8003038:	d0a5      	beq.n	8002f86 <print_num+0x9e>
 800303a:	e008      	b.n	800304e <print_num+0x166>
 800303c:	2d00      	cmp	r5, #0
 800303e:	f000 809a 	beq.w	8003176 <print_num+0x28e>
 8003042:	f108 0e01 	add.w	lr, r8, #1
 8003046:	4573      	cmp	r3, lr
 8003048:	dcdc      	bgt.n	8003004 <print_num+0x11c>
 800304a:	46c6      	mov	lr, r8
 800304c:	e001      	b.n	8003052 <print_num+0x16a>
 800304e:	f10e 3eff 	add.w	lr, lr, #4294967295	; 0xffffffff
 8003052:	680b      	ldr	r3, [r1, #0]
 8003054:	2b01      	cmp	r3, #1
 8003056:	d906      	bls.n	8003066 <print_num+0x17e>
 8003058:	6803      	ldr	r3, [r0, #0]
 800305a:	1c5e      	adds	r6, r3, #1
 800305c:	6006      	str	r6, [r0, #0]
 800305e:	701d      	strb	r5, [r3, #0]
 8003060:	680b      	ldr	r3, [r1, #0]
 8003062:	3b01      	subs	r3, #1
 8003064:	600b      	str	r3, [r1, #0]
 8003066:	6813      	ldr	r3, [r2, #0]
 8003068:	3301      	adds	r3, #1
 800306a:	6013      	str	r3, [r2, #0]
 800306c:	e78b      	b.n	8002f86 <print_num+0x9e>
 800306e:	2d00      	cmp	r5, #0
 8003070:	f000 8085 	beq.w	800317e <print_num+0x296>
 8003074:	f1bc 0f00 	cmp.w	ip, #0
 8003078:	f040 8083 	bne.w	8003182 <print_num+0x29a>
 800307c:	9d0d      	ldr	r5, [sp, #52]	; 0x34
 800307e:	2d00      	cmp	r5, #0
 8003080:	d07f      	beq.n	8003182 <print_num+0x29a>
 8003082:	9e0d      	ldr	r6, [sp, #52]	; 0x34
 8003084:	f04f 0820 	mov.w	r8, #32
 8003088:	e051      	b.n	800312e <print_num+0x246>
 800308a:	46e0      	mov	r8, ip
 800308c:	e770      	b.n	8002f70 <print_num+0x88>
 800308e:	4564      	cmp	r4, ip
 8003090:	4626      	mov	r6, r4
 8003092:	bfb8      	it	lt
 8003094:	4666      	movlt	r6, ip
 8003096:	f1bc 0f00 	cmp.w	ip, #0
 800309a:	d05b      	beq.n	8003154 <print_num+0x26c>
 800309c:	4564      	cmp	r4, ip
 800309e:	da1b      	bge.n	80030d8 <print_num+0x1f0>
 80030a0:	ebac 0c04 	sub.w	ip, ip, r4
 80030a4:	f10c 3cff 	add.w	ip, ip, #4294967295	; 0xffffffff
 80030a8:	f04f 0e30 	mov.w	lr, #48	; 0x30
 80030ac:	680d      	ldr	r5, [r1, #0]
 80030ae:	2d01      	cmp	r5, #1
 80030b0:	f10c 3cff 	add.w	ip, ip, #4294967295	; 0xffffffff
 80030b4:	d909      	bls.n	80030ca <print_num+0x1e2>
 80030b6:	6805      	ldr	r5, [r0, #0]
 80030b8:	f105 0801 	add.w	r8, r5, #1
 80030bc:	f8c0 8000 	str.w	r8, [r0]
 80030c0:	f885 e000 	strb.w	lr, [r5]
 80030c4:	680d      	ldr	r5, [r1, #0]
 80030c6:	3d01      	subs	r5, #1
 80030c8:	600d      	str	r5, [r1, #0]
 80030ca:	6815      	ldr	r5, [r2, #0]
 80030cc:	f1bc 3fff 	cmp.w	ip, #4294967295	; 0xffffffff
 80030d0:	f105 0501 	add.w	r5, r5, #1
 80030d4:	6015      	str	r5, [r2, #0]
 80030d6:	d1e9      	bne.n	80030ac <print_num+0x1c4>
 80030d8:	2c00      	cmp	r4, #0
 80030da:	f43f af20 	beq.w	8002f1e <print_num+0x36>
 80030de:	3c01      	subs	r4, #1
 80030e0:	443c      	add	r4, r7
 80030e2:	e000      	b.n	80030e6 <print_num+0x1fe>
 80030e4:	4664      	mov	r4, ip
 80030e6:	680d      	ldr	r5, [r1, #0]
 80030e8:	2d01      	cmp	r5, #1
 80030ea:	f104 3cff 	add.w	ip, r4, #4294967295	; 0xffffffff
 80030ee:	d90b      	bls.n	8003108 <print_num+0x220>
 80030f0:	6805      	ldr	r5, [r0, #0]
 80030f2:	f105 0e01 	add.w	lr, r5, #1
 80030f6:	f8c0 e000 	str.w	lr, [r0]
 80030fa:	f894 e000 	ldrb.w	lr, [r4]
 80030fe:	f885 e000 	strb.w	lr, [r5]
 8003102:	680d      	ldr	r5, [r1, #0]
 8003104:	3d01      	subs	r5, #1
 8003106:	600d      	str	r5, [r1, #0]
 8003108:	6815      	ldr	r5, [r2, #0]
 800310a:	42a7      	cmp	r7, r4
 800310c:	f105 0501 	add.w	r5, r5, #1
 8003110:	6015      	str	r5, [r2, #0]
 8003112:	d1e7      	bne.n	80030e4 <print_num+0x1fc>
 8003114:	e703      	b.n	8002f1e <print_num+0x36>
 8003116:	f1bc 0f00 	cmp.w	ip, #0
 800311a:	d101      	bne.n	8003120 <print_num+0x238>
 800311c:	9d0d      	ldr	r5, [sp, #52]	; 0x34
 800311e:	bb9d      	cbnz	r5, 8003188 <print_num+0x2a0>
 8003120:	f04f 082d 	mov.w	r8, #45	; 0x2d
 8003124:	4564      	cmp	r4, ip
 8003126:	4626      	mov	r6, r4
 8003128:	bfb8      	it	lt
 800312a:	4666      	movlt	r6, ip
 800312c:	3601      	adds	r6, #1
 800312e:	680d      	ldr	r5, [r1, #0]
 8003130:	2d01      	cmp	r5, #1
 8003132:	d909      	bls.n	8003148 <print_num+0x260>
 8003134:	6805      	ldr	r5, [r0, #0]
 8003136:	f105 0e01 	add.w	lr, r5, #1
 800313a:	f8c0 e000 	str.w	lr, [r0]
 800313e:	f885 8000 	strb.w	r8, [r5]
 8003142:	680d      	ldr	r5, [r1, #0]
 8003144:	3d01      	subs	r5, #1
 8003146:	600d      	str	r5, [r1, #0]
 8003148:	6815      	ldr	r5, [r2, #0]
 800314a:	3501      	adds	r5, #1
 800314c:	6015      	str	r5, [r2, #0]
 800314e:	f1bc 0f00 	cmp.w	ip, #0
 8003152:	d1a3      	bne.n	800309c <print_num+0x1b4>
 8003154:	9d0d      	ldr	r5, [sp, #52]	; 0x34
 8003156:	2d00      	cmp	r5, #0
 8003158:	d0a0      	beq.n	800309c <print_num+0x1b4>
 800315a:	e6e0      	b.n	8002f1e <print_num+0x36>
 800315c:	b16d      	cbz	r5, 800317a <print_num+0x292>
 800315e:	f1bc 0f00 	cmp.w	ip, #0
 8003162:	d105      	bne.n	8003170 <print_num+0x288>
 8003164:	9d0d      	ldr	r5, [sp, #52]	; 0x34
 8003166:	b11d      	cbz	r5, 8003170 <print_num+0x288>
 8003168:	462e      	mov	r6, r5
 800316a:	f04f 082b 	mov.w	r8, #43	; 0x2b
 800316e:	e7de      	b.n	800312e <print_num+0x246>
 8003170:	f04f 082b 	mov.w	r8, #43	; 0x2b
 8003174:	e7d6      	b.n	8003124 <print_num+0x23c>
 8003176:	46c6      	mov	lr, r8
 8003178:	e705      	b.n	8002f86 <print_num+0x9e>
 800317a:	252b      	movs	r5, #43	; 0x2b
 800317c:	e6ec      	b.n	8002f58 <print_num+0x70>
 800317e:	2520      	movs	r5, #32
 8003180:	e6ea      	b.n	8002f58 <print_num+0x70>
 8003182:	f04f 0820 	mov.w	r8, #32
 8003186:	e7cd      	b.n	8003124 <print_num+0x23c>
 8003188:	9e0d      	ldr	r6, [sp, #52]	; 0x34
 800318a:	f04f 082d 	mov.w	r8, #45	; 0x2d
 800318e:	e7ce      	b.n	800312e <print_num+0x246>

08003190 <vsnprintf>:
 8003190:	e92d 4ff0 	stmdb	sp!, {r4, r5, r6, r7, r8, r9, sl, fp, lr}
 8003194:	4692      	mov	sl, r2
 8003196:	b09d      	sub	sp, #116	; 0x74
 8003198:	2200      	movs	r2, #0
 800319a:	e9cd 0111 	strd	r0, r1, [sp, #68]	; 0x44
 800319e:	f89a 1000 	ldrb.w	r1, [sl]
 80031a2:	9213      	str	r2, [sp, #76]	; 0x4c
 80031a4:	469b      	mov	fp, r3
 80031a6:	920d      	str	r2, [sp, #52]	; 0x34
 80031a8:	2900      	cmp	r1, #0
 80031aa:	d063      	beq.n	8003274 <vsnprintf+0xe4>
 80031ac:	2925      	cmp	r1, #37	; 0x25
 80031ae:	d01e      	beq.n	80031ee <vsnprintf+0x5e>
 80031b0:	9a12      	ldr	r2, [sp, #72]	; 0x48
 80031b2:	f10a 0001 	add.w	r0, sl, #1
 80031b6:	e001      	b.n	80031bc <vsnprintf+0x2c>
 80031b8:	2925      	cmp	r1, #37	; 0x25
 80031ba:	d018      	beq.n	80031ee <vsnprintf+0x5e>
 80031bc:	2a01      	cmp	r2, #1
 80031be:	4682      	mov	sl, r0
 80031c0:	d906      	bls.n	80031d0 <vsnprintf+0x40>
 80031c2:	9b11      	ldr	r3, [sp, #68]	; 0x44
 80031c4:	1c5a      	adds	r2, r3, #1
 80031c6:	9211      	str	r2, [sp, #68]	; 0x44
 80031c8:	7019      	strb	r1, [r3, #0]
 80031ca:	9a12      	ldr	r2, [sp, #72]	; 0x48
 80031cc:	3a01      	subs	r2, #1
 80031ce:	9212      	str	r2, [sp, #72]	; 0x48
 80031d0:	9b13      	ldr	r3, [sp, #76]	; 0x4c
 80031d2:	f810 1b01 	ldrb.w	r1, [r0], #1
 80031d6:	3301      	adds	r3, #1
 80031d8:	9313      	str	r3, [sp, #76]	; 0x4c
 80031da:	2900      	cmp	r1, #0
 80031dc:	d1ec      	bne.n	80031b8 <vsnprintf+0x28>
 80031de:	b112      	cbz	r2, 80031e6 <vsnprintf+0x56>
 80031e0:	9b11      	ldr	r3, [sp, #68]	; 0x44
 80031e2:	2200      	movs	r2, #0
 80031e4:	701a      	strb	r2, [r3, #0]
 80031e6:	9813      	ldr	r0, [sp, #76]	; 0x4c
 80031e8:	b01d      	add	sp, #116	; 0x74
 80031ea:	e8bd 8ff0 	ldmia.w	sp!, {r4, r5, r6, r7, r8, r9, sl, fp, pc}
 80031ee:	2200      	movs	r2, #0
 80031f0:	f10a 0a01 	add.w	sl, sl, #1
 80031f4:	4617      	mov	r7, r2
 80031f6:	4615      	mov	r5, r2
 80031f8:	4610      	mov	r0, r2
 80031fa:	4651      	mov	r1, sl
 80031fc:	f81a 3b01 	ldrb.w	r3, [sl], #1
 8003200:	2b30      	cmp	r3, #48	; 0x30
 8003202:	d00c      	beq.n	800321e <vsnprintf+0x8e>
 8003204:	2b2d      	cmp	r3, #45	; 0x2d
 8003206:	d00c      	beq.n	8003222 <vsnprintf+0x92>
 8003208:	2b2b      	cmp	r3, #43	; 0x2b
 800320a:	d00c      	beq.n	8003226 <vsnprintf+0x96>
 800320c:	2b20      	cmp	r3, #32
 800320e:	d10c      	bne.n	800322a <vsnprintf+0x9a>
 8003210:	4651      	mov	r1, sl
 8003212:	f81a 3b01 	ldrb.w	r3, [sl], #1
 8003216:	2b30      	cmp	r3, #48	; 0x30
 8003218:	f04f 0201 	mov.w	r2, #1
 800321c:	d1f2      	bne.n	8003204 <vsnprintf+0x74>
 800321e:	2001      	movs	r0, #1
 8003220:	e7eb      	b.n	80031fa <vsnprintf+0x6a>
 8003222:	2501      	movs	r5, #1
 8003224:	e7e9      	b.n	80031fa <vsnprintf+0x6a>
 8003226:	2701      	movs	r7, #1
 8003228:	e7e7      	b.n	80031fa <vsnprintf+0x6a>
 800322a:	2b2a      	cmp	r3, #42	; 0x2a
 800322c:	d176      	bne.n	800331c <vsnprintf+0x18c>
 800322e:	f85b 4b04 	ldr.w	r4, [fp], #4
 8003232:	784b      	ldrb	r3, [r1, #1]
 8003234:	2c00      	cmp	r4, #0
 8003236:	f101 0601 	add.w	r6, r1, #1
 800323a:	da01      	bge.n	8003240 <vsnprintf+0xb0>
 800323c:	4264      	negs	r4, r4
 800323e:	2501      	movs	r5, #1
 8003240:	2b2e      	cmp	r3, #46	; 0x2e
 8003242:	f000 8082 	beq.w	800334a <vsnprintf+0x1ba>
 8003246:	2101      	movs	r1, #1
 8003248:	f04f 0c00 	mov.w	ip, #0
 800324c:	e9cd 1c0a 	strd	r1, ip, [sp, #40]	; 0x28
 8003250:	b183      	cbz	r3, 8003274 <vsnprintf+0xe4>
 8003252:	2b64      	cmp	r3, #100	; 0x64
 8003254:	f106 0a01 	add.w	sl, r6, #1
 8003258:	f000 80c6 	beq.w	80033e8 <vsnprintf+0x258>
 800325c:	d90c      	bls.n	8003278 <vsnprintf+0xe8>
 800325e:	2b75      	cmp	r3, #117	; 0x75
 8003260:	f000 8118 	beq.w	8003494 <vsnprintf+0x304>
 8003264:	2b78      	cmp	r3, #120	; 0x78
 8003266:	f000 80eb 	beq.w	8003440 <vsnprintf+0x2b0>
 800326a:	2b73      	cmp	r3, #115	; 0x73
 800326c:	f000 8094 	beq.w	8003398 <vsnprintf+0x208>
 8003270:	7871      	ldrb	r1, [r6, #1]
 8003272:	e799      	b.n	80031a8 <vsnprintf+0x18>
 8003274:	9a12      	ldr	r2, [sp, #72]	; 0x48
 8003276:	e7b2      	b.n	80031de <vsnprintf+0x4e>
 8003278:	2b25      	cmp	r3, #37	; 0x25
 800327a:	d040      	beq.n	80032fe <vsnprintf+0x16e>
 800327c:	2b63      	cmp	r3, #99	; 0x63
 800327e:	d1f7      	bne.n	8003270 <vsnprintf+0xe0>
 8003280:	9a12      	ldr	r2, [sp, #72]	; 0x48
 8003282:	f85b 7b04 	ldr.w	r7, [fp], #4
 8003286:	2c01      	cmp	r4, #1
 8003288:	4611      	mov	r1, r2
 800328a:	f340 81ba 	ble.w	8003602 <vsnprintf+0x472>
 800328e:	b9a5      	cbnz	r5, 80032ba <vsnprintf+0x12a>
 8003290:	1ea0      	subs	r0, r4, #2
 8003292:	f04f 0c20 	mov.w	ip, #32
 8003296:	2901      	cmp	r1, #1
 8003298:	f100 30ff 	add.w	r0, r0, #4294967295	; 0xffffffff
 800329c:	d908      	bls.n	80032b0 <vsnprintf+0x120>
 800329e:	9b11      	ldr	r3, [sp, #68]	; 0x44
 80032a0:	1c5a      	adds	r2, r3, #1
 80032a2:	9211      	str	r2, [sp, #68]	; 0x44
 80032a4:	f883 c000 	strb.w	ip, [r3]
 80032a8:	9a12      	ldr	r2, [sp, #72]	; 0x48
 80032aa:	1e51      	subs	r1, r2, #1
 80032ac:	9112      	str	r1, [sp, #72]	; 0x48
 80032ae:	460a      	mov	r2, r1
 80032b0:	9b13      	ldr	r3, [sp, #76]	; 0x4c
 80032b2:	3301      	adds	r3, #1
 80032b4:	9313      	str	r3, [sp, #76]	; 0x4c
 80032b6:	1c43      	adds	r3, r0, #1
 80032b8:	d1ed      	bne.n	8003296 <vsnprintf+0x106>
 80032ba:	2901      	cmp	r1, #1
 80032bc:	f240 81b7 	bls.w	800362e <vsnprintf+0x49e>
 80032c0:	9b11      	ldr	r3, [sp, #68]	; 0x44
 80032c2:	1c5a      	adds	r2, r3, #1
 80032c4:	9211      	str	r2, [sp, #68]	; 0x44
 80032c6:	701f      	strb	r7, [r3, #0]
 80032c8:	e9dd 2312 	ldrd	r2, r3, [sp, #72]	; 0x48
 80032cc:	3a01      	subs	r2, #1
 80032ce:	3301      	adds	r3, #1
 80032d0:	e9cd 2312 	strd	r2, r3, [sp, #72]	; 0x48
 80032d4:	2d00      	cmp	r5, #0
 80032d6:	d0cb      	beq.n	8003270 <vsnprintf+0xe0>
 80032d8:	3c02      	subs	r4, #2
 80032da:	2120      	movs	r1, #32
 80032dc:	2a01      	cmp	r2, #1
 80032de:	f104 34ff 	add.w	r4, r4, #4294967295	; 0xffffffff
 80032e2:	d907      	bls.n	80032f4 <vsnprintf+0x164>
 80032e4:	9b11      	ldr	r3, [sp, #68]	; 0x44
 80032e6:	1c5a      	adds	r2, r3, #1
 80032e8:	9211      	str	r2, [sp, #68]	; 0x44
 80032ea:	7019      	strb	r1, [r3, #0]
 80032ec:	e9dd 2312 	ldrd	r2, r3, [sp, #72]	; 0x48
 80032f0:	3a01      	subs	r2, #1
 80032f2:	9212      	str	r2, [sp, #72]	; 0x48
 80032f4:	3301      	adds	r3, #1
 80032f6:	1c60      	adds	r0, r4, #1
 80032f8:	9313      	str	r3, [sp, #76]	; 0x4c
 80032fa:	d1ef      	bne.n	80032dc <vsnprintf+0x14c>
 80032fc:	e7b8      	b.n	8003270 <vsnprintf+0xe0>
 80032fe:	9a12      	ldr	r2, [sp, #72]	; 0x48
 8003300:	2a01      	cmp	r2, #1
 8003302:	d906      	bls.n	8003312 <vsnprintf+0x182>
 8003304:	9a11      	ldr	r2, [sp, #68]	; 0x44
 8003306:	1c51      	adds	r1, r2, #1
 8003308:	9111      	str	r1, [sp, #68]	; 0x44
 800330a:	7013      	strb	r3, [r2, #0]
 800330c:	9a12      	ldr	r2, [sp, #72]	; 0x48
 800330e:	3a01      	subs	r2, #1
 8003310:	9212      	str	r2, [sp, #72]	; 0x48
 8003312:	9b13      	ldr	r3, [sp, #76]	; 0x4c
 8003314:	7871      	ldrb	r1, [r6, #1]
 8003316:	3301      	adds	r3, #1
 8003318:	9313      	str	r3, [sp, #76]	; 0x4c
 800331a:	e745      	b.n	80031a8 <vsnprintf+0x18>
 800331c:	f1a3 0430 	sub.w	r4, r3, #48	; 0x30
 8003320:	2c09      	cmp	r4, #9
 8003322:	bf98      	it	ls
 8003324:	2400      	movls	r4, #0
 8003326:	f200 817b 	bhi.w	8003620 <vsnprintf+0x490>
 800332a:	eb04 0484 	add.w	r4, r4, r4, lsl #2
 800332e:	eb03 0444 	add.w	r4, r3, r4, lsl #1
 8003332:	f811 3f01 	ldrb.w	r3, [r1, #1]!
 8003336:	f1a3 0630 	sub.w	r6, r3, #48	; 0x30
 800333a:	2e09      	cmp	r6, #9
 800333c:	f1a4 0430 	sub.w	r4, r4, #48	; 0x30
 8003340:	d9f3      	bls.n	800332a <vsnprintf+0x19a>
 8003342:	2b2e      	cmp	r3, #46	; 0x2e
 8003344:	460e      	mov	r6, r1
 8003346:	f47f af7e 	bne.w	8003246 <vsnprintf+0xb6>
 800334a:	7873      	ldrb	r3, [r6, #1]
 800334c:	2b2a      	cmp	r3, #42	; 0x2a
 800334e:	d109      	bne.n	8003364 <vsnprintf+0x1d4>
 8003350:	f85b 1b04 	ldr.w	r1, [fp], #4
 8003354:	78b3      	ldrb	r3, [r6, #2]
 8003356:	ea21 71e1 	bic.w	r1, r1, r1, asr #31
 800335a:	910a      	str	r1, [sp, #40]	; 0x28
 800335c:	2101      	movs	r1, #1
 800335e:	3602      	adds	r6, #2
 8003360:	910b      	str	r1, [sp, #44]	; 0x2c
 8003362:	e775      	b.n	8003250 <vsnprintf+0xc0>
 8003364:	f1a3 0130 	sub.w	r1, r3, #48	; 0x30
 8003368:	2909      	cmp	r1, #9
 800336a:	f106 0601 	add.w	r6, r6, #1
 800336e:	bf98      	it	ls
 8003370:	2100      	movls	r1, #0
 8003372:	f200 8163 	bhi.w	800363c <vsnprintf+0x4ac>
 8003376:	eb01 0181 	add.w	r1, r1, r1, lsl #2
 800337a:	eb03 0141 	add.w	r1, r3, r1, lsl #1
 800337e:	f816 3f01 	ldrb.w	r3, [r6, #1]!
 8003382:	f1a3 0c30 	sub.w	ip, r3, #48	; 0x30
 8003386:	f1bc 0f09 	cmp.w	ip, #9
 800338a:	f1a1 0130 	sub.w	r1, r1, #48	; 0x30
 800338e:	d9f2      	bls.n	8003376 <vsnprintf+0x1e6>
 8003390:	910a      	str	r1, [sp, #40]	; 0x28
 8003392:	2101      	movs	r1, #1
 8003394:	910b      	str	r1, [sp, #44]	; 0x2c
 8003396:	e75b      	b.n	8003250 <vsnprintf+0xc0>
 8003398:	9b0b      	ldr	r3, [sp, #44]	; 0x2c
 800339a:	f85b 7b04 	ldr.w	r7, [fp], #4
 800339e:	2b00      	cmp	r3, #0
 80033a0:	f040 808f 	bne.w	80034c2 <vsnprintf+0x332>
 80033a4:	4638      	mov	r0, r7
 80033a6:	f7ff fcfd 	bl	8002da4 <strlen>
 80033aa:	4284      	cmp	r4, r0
 80033ac:	f340 8090 	ble.w	80034d0 <vsnprintf+0x340>
 80033b0:	2d00      	cmp	r5, #0
 80033b2:	f040 8138 	bne.w	8003626 <vsnprintf+0x496>
 80033b6:	1a21      	subs	r1, r4, r0
 80033b8:	9a12      	ldr	r2, [sp, #72]	; 0x48
 80033ba:	3901      	subs	r1, #1
 80033bc:	f04f 0c20 	mov.w	ip, #32
 80033c0:	2a01      	cmp	r2, #1
 80033c2:	f101 31ff 	add.w	r1, r1, #4294967295	; 0xffffffff
 80033c6:	d907      	bls.n	80033d8 <vsnprintf+0x248>
 80033c8:	9b11      	ldr	r3, [sp, #68]	; 0x44
 80033ca:	1c5a      	adds	r2, r3, #1
 80033cc:	9211      	str	r2, [sp, #68]	; 0x44
 80033ce:	f883 c000 	strb.w	ip, [r3]
 80033d2:	9a12      	ldr	r2, [sp, #72]	; 0x48
 80033d4:	3a01      	subs	r2, #1
 80033d6:	9212      	str	r2, [sp, #72]	; 0x48
 80033d8:	9b13      	ldr	r3, [sp, #76]	; 0x4c
 80033da:	3301      	adds	r3, #1
 80033dc:	9313      	str	r3, [sp, #76]	; 0x4c
 80033de:	1c4b      	adds	r3, r1, #1
 80033e0:	d1ee      	bne.n	80033c0 <vsnprintf+0x230>
 80033e2:	2800      	cmp	r0, #0
 80033e4:	dc78      	bgt.n	80034d8 <vsnprintf+0x348>
 80033e6:	e743      	b.n	8003270 <vsnprintf+0xe0>
 80033e8:	f85b 3b04 	ldr.w	r3, [fp], #4
 80033ec:	2b00      	cmp	r3, #0
 80033ee:	bf0c      	ite	eq
 80033f0:	2101      	moveq	r1, #1
 80033f2:	2100      	movne	r1, #0
 80033f4:	910f      	str	r1, [sp, #60]	; 0x3c
 80033f6:	ea4f 71d3 	mov.w	r1, r3, lsr #31
 80033fa:	910e      	str	r1, [sp, #56]	; 0x38
 80033fc:	f2c0 80d3 	blt.w	80035a6 <vsnprintf+0x416>
 8003400:	f040 80d2 	bne.w	80035a8 <vsnprintf+0x418>
 8003404:	2330      	movs	r3, #48	; 0x30
 8003406:	f88d 3050 	strb.w	r3, [sp, #80]	; 0x50
 800340a:	ab14      	add	r3, sp, #80	; 0x50
 800340c:	f04f 0801 	mov.w	r8, #1
 8003410:	930c      	str	r3, [sp, #48]	; 0x30
 8003412:	9b0c      	ldr	r3, [sp, #48]	; 0x30
 8003414:	9308      	str	r3, [sp, #32]
 8003416:	9b0e      	ldr	r3, [sp, #56]	; 0x38
 8003418:	9307      	str	r3, [sp, #28]
 800341a:	9b0f      	ldr	r3, [sp, #60]	; 0x3c
 800341c:	f8cd 8024 	str.w	r8, [sp, #36]	; 0x24
 8003420:	e9cd 2305 	strd	r2, r3, [sp, #20]
 8003424:	9b0b      	ldr	r3, [sp, #44]	; 0x2c
 8003426:	9301      	str	r3, [sp, #4]
 8003428:	9b0a      	ldr	r3, [sp, #40]	; 0x28
 800342a:	9002      	str	r0, [sp, #8]
 800342c:	9300      	str	r3, [sp, #0]
 800342e:	e9cd 5703 	strd	r5, r7, [sp, #12]
 8003432:	4623      	mov	r3, r4
 8003434:	aa13      	add	r2, sp, #76	; 0x4c
 8003436:	a912      	add	r1, sp, #72	; 0x48
 8003438:	a811      	add	r0, sp, #68	; 0x44
 800343a:	f7ff fd55 	bl	8002ee8 <print_num>
 800343e:	e717      	b.n	8003270 <vsnprintf+0xe0>
 8003440:	f85b 3b04 	ldr.w	r3, [fp], #4
 8003444:	2b00      	cmp	r3, #0
 8003446:	bf0c      	ite	eq
 8003448:	2101      	moveq	r1, #1
 800344a:	2100      	movne	r1, #0
 800344c:	910e      	str	r1, [sp, #56]	; 0x38
 800344e:	f000 80a0 	beq.w	8003592 <vsnprintf+0x402>
 8003452:	f003 0c0f 	and.w	ip, r3, #15
 8003456:	f8df 9200 	ldr.w	r9, [pc, #512]	; 8003658 <vsnprintf+0x4c8>
 800345a:	091b      	lsrs	r3, r3, #4
 800345c:	f819 c00c 	ldrb.w	ip, [r9, ip]
 8003460:	f88d c050 	strb.w	ip, [sp, #80]	; 0x50
 8003464:	f000 8098 	beq.w	8003598 <vsnprintf+0x408>
 8003468:	a914      	add	r1, sp, #80	; 0x50
 800346a:	910c      	str	r1, [sp, #48]	; 0x30
 800346c:	468e      	mov	lr, r1
 800346e:	f04f 0c01 	mov.w	ip, #1
 8003472:	990a      	ldr	r1, [sp, #40]	; 0x28
 8003474:	e002      	b.n	800347c <vsnprintf+0x2ec>
 8003476:	f1bc 0f20 	cmp.w	ip, #32
 800347a:	d009      	beq.n	8003490 <vsnprintf+0x300>
 800347c:	f003 080f 	and.w	r8, r3, #15
 8003480:	091b      	lsrs	r3, r3, #4
 8003482:	f819 8008 	ldrb.w	r8, [r9, r8]
 8003486:	f80e 8f01 	strb.w	r8, [lr, #1]!
 800348a:	f10c 0c01 	add.w	ip, ip, #1
 800348e:	d1f2      	bne.n	8003476 <vsnprintf+0x2e6>
 8003490:	910a      	str	r1, [sp, #40]	; 0x28
 8003492:	e085      	b.n	80035a0 <vsnprintf+0x410>
 8003494:	f85b 3b04 	ldr.w	r3, [fp], #4
 8003498:	2b00      	cmp	r3, #0
 800349a:	bf0c      	ite	eq
 800349c:	2101      	moveq	r1, #1
 800349e:	2100      	movne	r1, #0
 80034a0:	910e      	str	r1, [sp, #56]	; 0x38
 80034a2:	d149      	bne.n	8003538 <vsnprintf+0x3a8>
 80034a4:	2330      	movs	r3, #48	; 0x30
 80034a6:	f88d 3050 	strb.w	r3, [sp, #80]	; 0x50
 80034aa:	ab14      	add	r3, sp, #80	; 0x50
 80034ac:	f04f 0801 	mov.w	r8, #1
 80034b0:	930c      	str	r3, [sp, #48]	; 0x30
 80034b2:	f8cd 8024 	str.w	r8, [sp, #36]	; 0x24
 80034b6:	9b0c      	ldr	r3, [sp, #48]	; 0x30
 80034b8:	9308      	str	r3, [sp, #32]
 80034ba:	9b0d      	ldr	r3, [sp, #52]	; 0x34
 80034bc:	9307      	str	r3, [sp, #28]
 80034be:	9b0e      	ldr	r3, [sp, #56]	; 0x38
 80034c0:	e7ae      	b.n	8003420 <vsnprintf+0x290>
 80034c2:	990a      	ldr	r1, [sp, #40]	; 0x28
 80034c4:	4638      	mov	r0, r7
 80034c6:	f7ff fc75 	bl	8002db4 <strnlen>
 80034ca:	4284      	cmp	r4, r0
 80034cc:	f73f af70 	bgt.w	80033b0 <vsnprintf+0x220>
 80034d0:	2800      	cmp	r0, #0
 80034d2:	f77f aecd 	ble.w	8003270 <vsnprintf+0xe0>
 80034d6:	9a12      	ldr	r2, [sp, #72]	; 0x48
 80034d8:	2100      	movs	r1, #0
 80034da:	2a01      	cmp	r2, #1
 80034dc:	d907      	bls.n	80034ee <vsnprintf+0x35e>
 80034de:	9b11      	ldr	r3, [sp, #68]	; 0x44
 80034e0:	1c5a      	adds	r2, r3, #1
 80034e2:	9211      	str	r2, [sp, #68]	; 0x44
 80034e4:	5c7a      	ldrb	r2, [r7, r1]
 80034e6:	701a      	strb	r2, [r3, #0]
 80034e8:	9a12      	ldr	r2, [sp, #72]	; 0x48
 80034ea:	3a01      	subs	r2, #1
 80034ec:	9212      	str	r2, [sp, #72]	; 0x48
 80034ee:	9b13      	ldr	r3, [sp, #76]	; 0x4c
 80034f0:	3101      	adds	r1, #1
 80034f2:	3301      	adds	r3, #1
 80034f4:	4288      	cmp	r0, r1
 80034f6:	9313      	str	r3, [sp, #76]	; 0x4c
 80034f8:	dcef      	bgt.n	80034da <vsnprintf+0x34a>
 80034fa:	4284      	cmp	r4, r0
 80034fc:	f77f aeb8 	ble.w	8003270 <vsnprintf+0xe0>
 8003500:	2d00      	cmp	r5, #0
 8003502:	f43f aeb5 	beq.w	8003270 <vsnprintf+0xe0>
 8003506:	1a20      	subs	r0, r4, r0
 8003508:	1e41      	subs	r1, r0, #1
 800350a:	2800      	cmp	r0, #0
 800350c:	f43f aeb0 	beq.w	8003270 <vsnprintf+0xe0>
 8003510:	9a12      	ldr	r2, [sp, #72]	; 0x48
 8003512:	2020      	movs	r0, #32
 8003514:	2a01      	cmp	r2, #1
 8003516:	f101 31ff 	add.w	r1, r1, #4294967295	; 0xffffffff
 800351a:	d906      	bls.n	800352a <vsnprintf+0x39a>
 800351c:	9b11      	ldr	r3, [sp, #68]	; 0x44
 800351e:	1c5a      	adds	r2, r3, #1
 8003520:	9211      	str	r2, [sp, #68]	; 0x44
 8003522:	7018      	strb	r0, [r3, #0]
 8003524:	9a12      	ldr	r2, [sp, #72]	; 0x48
 8003526:	3a01      	subs	r2, #1
 8003528:	9212      	str	r2, [sp, #72]	; 0x48
 800352a:	9b13      	ldr	r3, [sp, #76]	; 0x4c
 800352c:	1c4c      	adds	r4, r1, #1
 800352e:	f103 0301 	add.w	r3, r3, #1
 8003532:	9313      	str	r3, [sp, #76]	; 0x4c
 8003534:	d1ee      	bne.n	8003514 <vsnprintf+0x384>
 8003536:	e69b      	b.n	8003270 <vsnprintf+0xe0>
 8003538:	4946      	ldr	r1, [pc, #280]	; (8003654 <vsnprintf+0x4c4>)
 800353a:	fba1 1e03 	umull	r1, lr, r1, r3
 800353e:	ea4f 0ede 	mov.w	lr, lr, lsr #3
 8003542:	eb0e 0c8e 	add.w	ip, lr, lr, lsl #2
 8003546:	eba3 0c4c 	sub.w	ip, r3, ip, lsl #1
 800354a:	f10c 0c30 	add.w	ip, ip, #48	; 0x30
 800354e:	2b09      	cmp	r3, #9
 8003550:	f88d c050 	strb.w	ip, [sp, #80]	; 0x50
 8003554:	d9a9      	bls.n	80034aa <vsnprintf+0x31a>
 8003556:	ab14      	add	r3, sp, #80	; 0x50
 8003558:	930c      	str	r3, [sp, #48]	; 0x30
 800355a:	4699      	mov	r9, r3
 800355c:	f04f 0801 	mov.w	r8, #1
 8003560:	990a      	ldr	r1, [sp, #40]	; 0x28
 8003562:	e002      	b.n	800356a <vsnprintf+0x3da>
 8003564:	f1b8 0f20 	cmp.w	r8, #32
 8003568:	d011      	beq.n	800358e <vsnprintf+0x3fe>
 800356a:	4b3a      	ldr	r3, [pc, #232]	; (8003654 <vsnprintf+0x4c4>)
 800356c:	fba3 c30e 	umull	ip, r3, r3, lr
 8003570:	08db      	lsrs	r3, r3, #3
 8003572:	eb03 0c83 	add.w	ip, r3, r3, lsl #2
 8003576:	ebae 0c4c 	sub.w	ip, lr, ip, lsl #1
 800357a:	f10c 0c30 	add.w	ip, ip, #48	; 0x30
 800357e:	f1be 0f09 	cmp.w	lr, #9
 8003582:	f108 0801 	add.w	r8, r8, #1
 8003586:	f809 cf01 	strb.w	ip, [r9, #1]!
 800358a:	469e      	mov	lr, r3
 800358c:	d8ea      	bhi.n	8003564 <vsnprintf+0x3d4>
 800358e:	910a      	str	r1, [sp, #40]	; 0x28
 8003590:	e78f      	b.n	80034b2 <vsnprintf+0x322>
 8003592:	2330      	movs	r3, #48	; 0x30
 8003594:	f88d 3050 	strb.w	r3, [sp, #80]	; 0x50
 8003598:	ab14      	add	r3, sp, #80	; 0x50
 800359a:	f04f 0c01 	mov.w	ip, #1
 800359e:	930c      	str	r3, [sp, #48]	; 0x30
 80035a0:	f8cd c024 	str.w	ip, [sp, #36]	; 0x24
 80035a4:	e787      	b.n	80034b6 <vsnprintf+0x326>
 80035a6:	425b      	negs	r3, r3
 80035a8:	492a      	ldr	r1, [pc, #168]	; (8003654 <vsnprintf+0x4c4>)
 80035aa:	fba1 1e03 	umull	r1, lr, r1, r3
 80035ae:	ea4f 0ede 	mov.w	lr, lr, lsr #3
 80035b2:	eb0e 0c8e 	add.w	ip, lr, lr, lsl #2
 80035b6:	eba3 0c4c 	sub.w	ip, r3, ip, lsl #1
 80035ba:	f10c 0c30 	add.w	ip, ip, #48	; 0x30
 80035be:	2b09      	cmp	r3, #9
 80035c0:	f88d c050 	strb.w	ip, [sp, #80]	; 0x50
 80035c4:	d940      	bls.n	8003648 <vsnprintf+0x4b8>
 80035c6:	ab14      	add	r3, sp, #80	; 0x50
 80035c8:	930c      	str	r3, [sp, #48]	; 0x30
 80035ca:	4699      	mov	r9, r3
 80035cc:	f04f 0801 	mov.w	r8, #1
 80035d0:	990a      	ldr	r1, [sp, #40]	; 0x28
 80035d2:	e002      	b.n	80035da <vsnprintf+0x44a>
 80035d4:	f1b8 0f20 	cmp.w	r8, #32
 80035d8:	d011      	beq.n	80035fe <vsnprintf+0x46e>
 80035da:	4b1e      	ldr	r3, [pc, #120]	; (8003654 <vsnprintf+0x4c4>)
 80035dc:	fba3 c30e 	umull	ip, r3, r3, lr
 80035e0:	08db      	lsrs	r3, r3, #3
 80035e2:	eb03 0c83 	add.w	ip, r3, r3, lsl #2
 80035e6:	ebae 0c4c 	sub.w	ip, lr, ip, lsl #1
 80035ea:	f10c 0c30 	add.w	ip, ip, #48	; 0x30
 80035ee:	f1be 0f09 	cmp.w	lr, #9
 80035f2:	f108 0801 	add.w	r8, r8, #1
 80035f6:	f809 cf01 	strb.w	ip, [r9, #1]!
 80035fa:	469e      	mov	lr, r3
 80035fc:	d8ea      	bhi.n	80035d4 <vsnprintf+0x444>
 80035fe:	910a      	str	r1, [sp, #40]	; 0x28
 8003600:	e707      	b.n	8003412 <vsnprintf+0x282>
 8003602:	2a01      	cmp	r2, #1
 8003604:	f67f ae85 	bls.w	8003312 <vsnprintf+0x182>
 8003608:	9b11      	ldr	r3, [sp, #68]	; 0x44
 800360a:	1c5a      	adds	r2, r3, #1
 800360c:	9211      	str	r2, [sp, #68]	; 0x44
 800360e:	701f      	strb	r7, [r3, #0]
 8003610:	e9dd 2312 	ldrd	r2, r3, [sp, #72]	; 0x48
 8003614:	3a01      	subs	r2, #1
 8003616:	3301      	adds	r3, #1
 8003618:	7871      	ldrb	r1, [r6, #1]
 800361a:	e9cd 2312 	strd	r2, r3, [sp, #72]	; 0x48
 800361e:	e5c3      	b.n	80031a8 <vsnprintf+0x18>
 8003620:	460e      	mov	r6, r1
 8003622:	2400      	movs	r4, #0
 8003624:	e60c      	b.n	8003240 <vsnprintf+0xb0>
 8003626:	2800      	cmp	r0, #0
 8003628:	f73f af55 	bgt.w	80034d6 <vsnprintf+0x346>
 800362c:	e76b      	b.n	8003506 <vsnprintf+0x376>
 800362e:	9b13      	ldr	r3, [sp, #76]	; 0x4c
 8003630:	3301      	adds	r3, #1
 8003632:	9313      	str	r3, [sp, #76]	; 0x4c
 8003634:	2d00      	cmp	r5, #0
 8003636:	f47f ae4f 	bne.w	80032d8 <vsnprintf+0x148>
 800363a:	e619      	b.n	8003270 <vsnprintf+0xe0>
 800363c:	2100      	movs	r1, #0
 800363e:	f04f 0801 	mov.w	r8, #1
 8003642:	e9cd 180a 	strd	r1, r8, [sp, #40]	; 0x28
 8003646:	e603      	b.n	8003250 <vsnprintf+0xc0>
 8003648:	ab14      	add	r3, sp, #80	; 0x50
 800364a:	f04f 0801 	mov.w	r8, #1
 800364e:	930c      	str	r3, [sp, #48]	; 0x30
 8003650:	e6df      	b.n	8003412 <vsnprintf+0x282>
 8003652:	bf00      	nop
 8003654:	cccccccd 	.word	0xcccccccd
 8003658:	08004860 	.word	0x08004860

0800365c <sprintf>:
 800365c:	b40e      	push	{r1, r2, r3}
 800365e:	b500      	push	{lr}
 8003660:	b082      	sub	sp, #8
 8003662:	ab03      	add	r3, sp, #12
 8003664:	f04f 31ff 	mov.w	r1, #4294967295	; 0xffffffff
 8003668:	f853 2b04 	ldr.w	r2, [r3], #4
 800366c:	9301      	str	r3, [sp, #4]
 800366e:	f7ff fd8f 	bl	8003190 <vsnprintf>
 8003672:	b002      	add	sp, #8
 8003674:	f85d eb04 	ldr.w	lr, [sp], #4
 8003678:	b003      	add	sp, #12
 800367a:	4770      	bx	lr

0800367c <snprintf>:
 800367c:	b40c      	push	{r2, r3}
 800367e:	b500      	push	{lr}
 8003680:	b083      	sub	sp, #12
 8003682:	ab04      	add	r3, sp, #16
 8003684:	f853 2b04 	ldr.w	r2, [r3], #4
 8003688:	9301      	str	r3, [sp, #4]
 800368a:	f7ff fd81 	bl	8003190 <vsnprintf>
 800368e:	b003      	add	sp, #12
 8003690:	f85d eb04 	ldr.w	lr, [sp], #4
 8003694:	b002      	add	sp, #8
 8003696:	4770      	bx	lr
